(lp0
(I-64
I42
tp1
a(I-64
I43
tp2
a(I-63
I42
tp3
a(I-63
I43
tp4
a(I-62
I42
tp5
a(I-62
I43
tp6
a(I-61
I42
tp7
a(I-61
I43
tp8
a(I-60
I42
tp9
a(I-60
I43
tp10
a(I-59
I42
tp11
a(I-59
I43
tp12
a(I-58
I42
tp13
a(I-58
I43
tp14
a(I-57
I42
tp15
a(I-57
I43
tp16
a(I-56
I42
tp17
a(I-56
I43
tp18
a(I-55
I42
tp19
a(I-55
I43
tp20
a(I-41
I37
tp21
a(I-41
I38
tp22
a(I-40
I37
tp23
a(I-40
I38
tp24
a(I-39
I37
tp25
a(I-39
I38
tp26
a(I-38
I37
tp27
a(I-38
I38
tp28
a(I-37
I37
tp29
a(I-37
I38
tp30
a(I-36
I37
tp31
a(I-36
I38
tp32
a(I-35
I37
tp33
a(I-35
I38
tp34
a(I-34
I37
tp35
a(I-34
I38
tp36
a(I-33
I37
tp37
a(I-33
I38
tp38
a(I-32
I37
tp39
a(I-32
I38
tp40
a(I-31
I37
tp41
a(I-31
I38
tp42
a(I-30
I37
tp43
a(I-30
I38
tp44
a(I-29
I37
tp45
a(I-29
I38
tp46
a(I-28
I37
tp47
a(I-28
I38
tp48
a(I-29
I9
tp49
a(I-28
I9
tp50
a(I-29
I10
tp51
a(I-28
I10
tp52
a(I-29
I11
tp53
a(I-28
I11
tp54
a(I-29
I12
tp55
a(I-28
I12
tp56
a(I-29
I13
tp57
a(I-28
I13
tp58
a(I-29
I14
tp59
a(I-28
I14
tp60
a(I-29
I15
tp61
a(I-28
I15
tp62
a(I-29
I16
tp63
a(I-28
I16
tp64
a(I-29
I17
tp65
a(I-28
I17
tp66
a(I-29
I18
tp67
a(I-28
I18
tp68
a(I-29
I19
tp69
a(I-28
I19
tp70
a(I-29
I20
tp71
a(I-28
I20
tp72
a(I-29
I21
tp73
a(I-28
I21
tp74
a(I-29
I22
tp75
a(I-28
I22
tp76
a(I-29
I23
tp77
a(I-28
I23
tp78
a(I-29
I24
tp79
a(I-28
I24
tp80
a(I-29
I25
tp81
a(I-28
I25
tp82
a(I-29
I26
tp83
a(I-28
I26
tp84
a(I-29
I27
tp85
a(I-28
I27
tp86
a(I-29
I28
tp87
a(I-28
I28
tp88
a(I-29
I29
tp89
a(I-28
I29
tp90
a(I-29
I30
tp91
a(I-28
I30
tp92
a(I-29
I31
tp93
a(I-28
I31
tp94
a(I-29
I32
tp95
a(I-28
I32
tp96
a(I-29
I33
tp97
a(I-28
I33
tp98
a(I-29
I34
tp99
a(I-28
I34
tp100
a(I-29
I35
tp101
a(I-28
I35
tp102
a(I-29
I36
tp103
a(I-28
I36
tp104
a(I-29
I37
tp105
a(I-28
I37
tp106
a(I-29
I38
tp107
a(I-28
I38
tp108
a(I-40
I10
tp109
a(I-40
I11
tp110
a(I-39
I10
tp111
a(I-39
I11
tp112
a(I-38
I10
tp113
a(I-38
I11
tp114
a(I-37
I10
tp115
a(I-37
I11
tp116
a(I-36
I10
tp117
a(I-36
I11
tp118
a(I-35
I10
tp119
a(I-35
I11
tp120
a(I-34
I10
tp121
a(I-34
I11
tp122
a(I-33
I10
tp123
a(I-33
I11
tp124
a(I-32
I10
tp125
a(I-32
I11
tp126
a(I-31
I10
tp127
a(I-31
I11
tp128
a(I-30
I10
tp129
a(I-30
I11
tp130
a(I-29
I10
tp131
a(I-29
I11
tp132
a(I-28
I10
tp133
a(I-28
I11
tp134
a(I-27
I10
tp135
a(I-27
I11
tp136
a(I-40
I9
tp137
a(I-39
I9
tp138
a(I-40
I10
tp139
a(I-39
I10
tp140
a(I-40
I11
tp141
a(I-39
I11
tp142
a(I-40
I12
tp143
a(I-39
I12
tp144
a(I-40
I13
tp145
a(I-39
I13
tp146
a(I-40
I14
tp147
a(I-39
I14
tp148
a(I-40
I15
tp149
a(I-39
I15
tp150
a(I-40
I16
tp151
a(I-39
I16
tp152
a(I-40
I17
tp153
a(I-39
I17
tp154
a(I-40
I18
tp155
a(I-39
I18
tp156
a(I-40
I19
tp157
a(I-39
I19
tp158
a(I-40
I20
tp159
a(I-39
I20
tp160
a(I-40
I21
tp161
a(I-39
I21
tp162
a(I-40
I22
tp163
a(I-39
I22
tp164
a(I-40
I23
tp165
a(I-39
I23
tp166
a(I-40
I24
tp167
a(I-39
I24
tp168
a(I-40
I25
tp169
a(I-39
I25
tp170
a(I-40
I26
tp171
a(I-39
I26
tp172
a(I-40
I27
tp173
a(I-39
I27
tp174
a(I-40
I28
tp175
a(I-39
I28
tp176
a(I-40
I29
tp177
a(I-39
I29
tp178
a(I-40
I30
tp179
a(I-39
I30
tp180
a(I-40
I31
tp181
a(I-39
I31
tp182
a(I-40
I32
tp183
a(I-39
I32
tp184
a(I-40
I33
tp185
a(I-39
I33
tp186
a(I-40
I34
tp187
a(I-39
I34
tp188
a(I-40
I35
tp189
a(I-39
I35
tp190
a(I-40
I36
tp191
a(I-39
I36
tp192
a(I-40
I37
tp193
a(I-39
I37
tp194
a(I-40
I38
tp195
a(I-39
I38
tp196
a(I-23
I23
tp197
a(I-22
I23
tp198
a(I-23
I24
tp199
a(I-22
I24
tp200
a(I-23
I25
tp201
a(I-22
I25
tp202
a(I-23
I26
tp203
a(I-22
I26
tp204
a(I-23
I27
tp205
a(I-22
I27
tp206
a(I-23
I28
tp207
a(I-22
I28
tp208
a(I-23
I29
tp209
a(I-22
I29
tp210
a(I-23
I30
tp211
a(I-22
I30
tp212
a(I-23
I31
tp213
a(I-22
I31
tp214
a(I-23
I32
tp215
a(I-22
I32
tp216
a(I-23
I33
tp217
a(I-22
I33
tp218
a(I-23
I34
tp219
a(I-22
I34
tp220
a(I-23
I35
tp221
a(I-22
I35
tp222
a(I-23
I36
tp223
a(I-22
I36
tp224
a(I-23
I37
tp225
a(I-22
I37
tp226
a(I-23
I38
tp227
a(I-22
I38
tp228
a(I-23
I23
tp229
a(I-23
I24
tp230
a(I-22
I23
tp231
a(I-22
I24
tp232
a(I-21
I23
tp233
a(I-21
I24
tp234
a(I-20
I23
tp235
a(I-20
I24
tp236
a(I-19
I23
tp237
a(I-19
I24
tp238
a(I-18
I23
tp239
a(I-18
I24
tp240
a(I-17
I23
tp241
a(I-17
I24
tp242
a(I-16
I23
tp243
a(I-16
I24
tp244
a(I-15
I23
tp245
a(I-15
I24
tp246
a(I-14
I23
tp247
a(I-14
I24
tp248
a(I-13
I23
tp249
a(I-13
I24
tp250
a(I-12
I23
tp251
a(I-12
I24
tp252
a(I-11
I23
tp253
a(I-11
I24
tp254
a(I-10
I23
tp255
a(I-10
I24
tp256
a(I-11
I10
tp257
a(I-10
I10
tp258
a(I-11
I11
tp259
a(I-10
I11
tp260
a(I-11
I12
tp261
a(I-10
I12
tp262
a(I-11
I13
tp263
a(I-10
I13
tp264
a(I-11
I14
tp265
a(I-10
I14
tp266
a(I-11
I15
tp267
a(I-10
I15
tp268
a(I-11
I16
tp269
a(I-10
I16
tp270
a(I-11
I17
tp271
a(I-10
I17
tp272
a(I-11
I18
tp273
a(I-10
I18
tp274
a(I-11
I19
tp275
a(I-10
I19
tp276
a(I-11
I20
tp277
a(I-10
I20
tp278
a(I-11
I21
tp279
a(I-10
I21
tp280
a(I-11
I22
tp281
a(I-10
I22
tp282
a(I-11
I23
tp283
a(I-10
I23
tp284
a(I-11
I24
tp285
a(I-10
I24
tp286
a(I-11
I25
tp287
a(I-10
I25
tp288
a(I-25
I10
tp289
a(I-25
I11
tp290
a(I-24
I10
tp291
a(I-24
I11
tp292
a(I-23
I10
tp293
a(I-23
I11
tp294
a(I-22
I10
tp295
a(I-22
I11
tp296
a(I-21
I10
tp297
a(I-21
I11
tp298
a(I-20
I10
tp299
a(I-20
I11
tp300
a(I-19
I10
tp301
a(I-19
I11
tp302
a(I-18
I10
tp303
a(I-18
I11
tp304
a(I-17
I10
tp305
a(I-17
I11
tp306
a(I-16
I10
tp307
a(I-16
I11
tp308
a(I-15
I10
tp309
a(I-15
I11
tp310
a(I-14
I10
tp311
a(I-14
I11
tp312
a(I-13
I10
tp313
a(I-13
I11
tp314
a(I-12
I10
tp315
a(I-12
I11
tp316
a(I-11
I10
tp317
a(I-11
I11
tp318
a(I-10
I10
tp319
a(I-10
I11
tp320
a(I-23
I37
tp321
a(I-23
I38
tp322
a(I-22
I37
tp323
a(I-22
I38
tp324
a(I-21
I37
tp325
a(I-21
I38
tp326
a(I-20
I37
tp327
a(I-20
I38
tp328
a(I-19
I37
tp329
a(I-19
I38
tp330
a(I-18
I37
tp331
a(I-18
I38
tp332
a(I-17
I37
tp333
a(I-17
I38
tp334
a(I-16
I37
tp335
a(I-16
I38
tp336
a(I-15
I37
tp337
a(I-15
I38
tp338
a(I-14
I37
tp339
a(I-14
I38
tp340
a(I-13
I37
tp341
a(I-13
I38
tp342
a(I-12
I37
tp343
a(I-12
I38
tp344
a(I-12
I37
tp345
a(I-12
I38
tp346
a(I-11
I37
tp347
a(I-11
I38
tp348
a(I-10
I37
tp349
a(I-10
I38
tp350
a(I-9
I37
tp351
a(I-9
I38
tp352
a(I-8
I37
tp353
a(I-8
I38
tp354
a(I-7
I37
tp355
a(I-7
I38
tp356
a(I-6
I37
tp357
a(I-6
I38
tp358
a(I-5
I37
tp359
a(I-5
I38
tp360
a(I-4
I37
tp361
a(I-4
I38
tp362
a(I-3
I37
tp363
a(I-3
I38
tp364
a(I-2
I37
tp365
a(I-2
I38
tp366
a(I-1
I37
tp367
a(I-1
I38
tp368
a(I0
I37
tp369
a(I0
I38
tp370
a(I1
I37
tp371
a(I1
I38
tp372
a(I2
I37
tp373
a(I2
I38
tp374
a(I3
I37
tp375
a(I3
I38
tp376
a(I4
I37
tp377
a(I4
I38
tp378
a(I5
I37
tp379
a(I5
I38
tp380
a(I6
I37
tp381
a(I6
I38
tp382
a(I7
I37
tp383
a(I7
I38
tp384
a(I8
I37
tp385
a(I8
I38
tp386
a(I9
I37
tp387
a(I9
I38
tp388
a(I7
I37
tp389
a(I7
I38
tp390
a(I8
I37
tp391
a(I8
I38
tp392
a(I9
I37
tp393
a(I9
I38
tp394
a(I10
I37
tp395
a(I10
I38
tp396
a(I11
I37
tp397
a(I11
I38
tp398
a(I12
I37
tp399
a(I12
I38
tp400
a(I13
I37
tp401
a(I13
I38
tp402
a(I14
I37
tp403
a(I14
I38
tp404
a(I15
I37
tp405
a(I15
I38
tp406
a(I16
I37
tp407
a(I16
I38
tp408
a(I17
I37
tp409
a(I17
I38
tp410
a(I18
I37
tp411
a(I18
I38
tp412
a(I19
I37
tp413
a(I19
I38
tp414
a(I20
I37
tp415
a(I20
I38
tp416
a(I18
I27
tp417
a(I19
I27
tp418
a(I18
I28
tp419
a(I19
I28
tp420
a(I18
I29
tp421
a(I19
I29
tp422
a(I18
I30
tp423
a(I19
I30
tp424
a(I18
I31
tp425
a(I19
I31
tp426
a(I18
I32
tp427
a(I19
I32
tp428
a(I18
I33
tp429
a(I19
I33
tp430
a(I18
I34
tp431
a(I19
I34
tp432
a(I18
I35
tp433
a(I19
I35
tp434
a(I18
I36
tp435
a(I19
I36
tp436
a(I18
I37
tp437
a(I19
I37
tp438
a(I18
I38
tp439
a(I19
I38
tp440
a(I18
I22
tp441
a(I19
I22
tp442
a(I18
I23
tp443
a(I19
I23
tp444
a(I18
I24
tp445
a(I19
I24
tp446
a(I18
I25
tp447
a(I19
I25
tp448
a(I18
I26
tp449
a(I19
I26
tp450
a(I18
I27
tp451
a(I19
I27
tp452
a(I-54
I41
tp453
a(I-53
I41
tp454
a(I-54
I42
tp455
a(I-53
I42
tp456
a(I-54
I43
tp457
a(I-53
I43
tp458
a(I-54
I44
tp459
a(I-53
I44
tp460
a(I-54
I45
tp461
a(I-53
I45
tp462
a(I-54
I46
tp463
a(I-53
I46
tp464
a(I-54
I47
tp465
a(I-53
I47
tp466
a(I-54
I48
tp467
a(I-53
I48
tp468
a(I17
I23
tp469
a(I17
I24
tp470
a(I18
I23
tp471
a(I18
I24
tp472
a(I19
I23
tp473
a(I19
I24
tp474
a(I20
I23
tp475
a(I20
I24
tp476
a(I17
I22
tp477
a(I18
I22
tp478
a(I17
I23
tp479
a(I18
I23
tp480
a(I17
I24
tp481
a(I18
I24
tp482
a(I17
I25
tp483
a(I18
I25
tp484
a(I-4
I24
tp485
a(I-4
I25
tp486
a(I-3
I24
tp487
a(I-3
I25
tp488
a(I-2
I24
tp489
a(I-2
I25
tp490
a(I-1
I24
tp491
a(I-1
I25
tp492
a(I0
I24
tp493
a(I0
I25
tp494
a(I1
I24
tp495
a(I1
I25
tp496
a(I2
I24
tp497
a(I2
I25
tp498
a(I3
I24
tp499
a(I3
I25
tp500
a(I4
I24
tp501
a(I4
I25
tp502
a(I5
I24
tp503
a(I5
I25
tp504
a(I6
I24
tp505
a(I6
I25
tp506
a(I7
I24
tp507
a(I7
I25
tp508
a(I8
I24
tp509
a(I8
I25
tp510
a(I9
I24
tp511
a(I9
I25
tp512
a(I10
I24
tp513
a(I10
I25
tp514
a(I11
I24
tp515
a(I11
I25
tp516
a(I12
I24
tp517
a(I12
I25
tp518
a(I13
I24
tp519
a(I13
I25
tp520
a(I14
I24
tp521
a(I14
I25
tp522
a(I15
I24
tp523
a(I15
I25
tp524
a(I16
I24
tp525
a(I16
I25
tp526
a(I17
I24
tp527
a(I17
I25
tp528
a(I18
I24
tp529
a(I18
I25
tp530
a(I19
I24
tp531
a(I19
I25
tp532
a(I-4
I23
tp533
a(I-3
I23
tp534
a(I-4
I24
tp535
a(I-3
I24
tp536
a(I-4
I25
tp537
a(I-3
I25
tp538
a(I-4
I26
tp539
a(I-3
I26
tp540
a(I-4
I27
tp541
a(I-3
I27
tp542
a(I-4
I28
tp543
a(I-3
I28
tp544
a(I-4
I29
tp545
a(I-3
I29
tp546
a(I-4
I30
tp547
a(I-3
I30
tp548
a(I-4
I31
tp549
a(I-3
I31
tp550
a(I-4
I32
tp551
a(I-3
I32
tp552
a(I-4
I33
tp553
a(I-3
I33
tp554
a(I-4
I34
tp555
a(I-3
I34
tp556
a(I-4
I35
tp557
a(I-3
I35
tp558
a(I-4
I36
tp559
a(I-3
I36
tp560
a(I-4
I37
tp561
a(I-3
I37
tp562
a(I-4
I38
tp563
a(I-3
I38
tp564
a(I18
I10
tp565
a(I19
I10
tp566
a(I18
I11
tp567
a(I19
I11
tp568
a(I18
I12
tp569
a(I19
I12
tp570
a(I18
I13
tp571
a(I19
I13
tp572
a(I18
I14
tp573
a(I19
I14
tp574
a(I18
I15
tp575
a(I19
I15
tp576
a(I18
I16
tp577
a(I19
I16
tp578
a(I18
I17
tp579
a(I19
I17
tp580
a(I18
I18
tp581
a(I19
I18
tp582
a(I18
I19
tp583
a(I19
I19
tp584
a(I18
I20
tp585
a(I19
I20
tp586
a(I18
I21
tp587
a(I19
I21
tp588
a(I18
I22
tp589
a(I19
I22
tp590
a(I18
I23
tp591
a(I19
I23
tp592
a(I-12
I10
tp593
a(I-12
I11
tp594
a(I-11
I10
tp595
a(I-11
I11
tp596
a(I-10
I10
tp597
a(I-10
I11
tp598
a(I-9
I10
tp599
a(I-9
I11
tp600
a(I-8
I10
tp601
a(I-8
I11
tp602
a(I-7
I10
tp603
a(I-7
I11
tp604
a(I-6
I10
tp605
a(I-6
I11
tp606
a(I-5
I10
tp607
a(I-5
I11
tp608
a(I-4
I10
tp609
a(I-4
I11
tp610
a(I-3
I10
tp611
a(I-3
I11
tp612
a(I-2
I10
tp613
a(I-2
I11
tp614
a(I-1
I10
tp615
a(I-1
I11
tp616
a(I0
I10
tp617
a(I0
I11
tp618
a(I1
I10
tp619
a(I1
I11
tp620
a(I2
I10
tp621
a(I2
I11
tp622
a(I3
I10
tp623
a(I3
I11
tp624
a(I4
I10
tp625
a(I4
I11
tp626
a(I5
I10
tp627
a(I5
I11
tp628
a(I6
I10
tp629
a(I6
I11
tp630
a(I7
I10
tp631
a(I7
I11
tp632
a(I8
I10
tp633
a(I8
I11
tp634
a(I9
I10
tp635
a(I9
I11
tp636
a(I10
I10
tp637
a(I10
I11
tp638
a(I11
I10
tp639
a(I11
I11
tp640
a(I12
I10
tp641
a(I12
I11
tp642
a(I13
I10
tp643
a(I13
I11
tp644
a(I14
I10
tp645
a(I14
I11
tp646
a(I15
I10
tp647
a(I15
I11
tp648
a(I16
I10
tp649
a(I16
I11
tp650
a(I17
I10
tp651
a(I17
I11
tp652
a(I18
I10
tp653
a(I18
I11
tp654
a(I19
I10
tp655
a(I19
I11
tp656
a(I2
I10
tp657
a(I3
I10
tp658
a(I2
I11
tp659
a(I3
I11
tp660
a(I2
I12
tp661
a(I3
I12
tp662
a(I2
I13
tp663
a(I3
I13
tp664
a(I2
I14
tp665
a(I3
I14
tp666
a(I2
I15
tp667
a(I3
I15
tp668
a(I2
I16
tp669
a(I3
I16
tp670
a(I2
I17
tp671
a(I3
I17
tp672
a(I2
I18
tp673
a(I3
I18
tp674
a(I2
I19
tp675
a(I3
I19
tp676
a(I2
I20
tp677
a(I3
I20
tp678
a(I2
I21
tp679
a(I3
I21
tp680
a(I2
I22
tp681
a(I3
I22
tp682
a(I2
I23
tp683
a(I3
I23
tp684
a(I-55
I42
tp685
a(I-55
I43
tp686
a(I-54
I42
tp687
a(I-54
I43
tp688
a(I-53
I42
tp689
a(I-53
I43
tp690
a(I-52
I42
tp691
a(I-52
I43
tp692
a(I-4
I10
tp693
a(I-3
I10
tp694
a(I-4
I11
tp695
a(I-3
I11
tp696
a(I-4
I12
tp697
a(I-3
I12
tp698
a(I-4
I13
tp699
a(I-3
I13
tp700
a(I-4
I14
tp701
a(I-3
I14
tp702
a(I-4
I15
tp703
a(I-3
I15
tp704
a(I-4
I16
tp705
a(I-3
I16
tp706
a(I-4
I17
tp707
a(I-3
I17
tp708
a(I-4
I18
tp709
a(I-3
I18
tp710
a(I-4
I19
tp711
a(I-3
I19
tp712
a(I-4
I20
tp713
a(I-3
I20
tp714
a(I-4
I21
tp715
a(I-3
I21
tp716
a(I-4
I22
tp717
a(I-3
I22
tp718
a(I-4
I23
tp719
a(I-3
I23
tp720
a(I-17
I-41
tp721
a(I-16
I-41
tp722
a(I-17
I-40
tp723
a(I-16
I-40
tp724
a(I-17
I-39
tp725
a(I-16
I-39
tp726
a(I-17
I-38
tp727
a(I-16
I-38
tp728
a(I-17
I-37
tp729
a(I-16
I-37
tp730
a(I-17
I-36
tp731
a(I-16
I-36
tp732
a(I-17
I-35
tp733
a(I-16
I-35
tp734
a(I-17
I-34
tp735
a(I-16
I-34
tp736
a(I-17
I-33
tp737
a(I-16
I-33
tp738
a(I-17
I-32
tp739
a(I-16
I-32
tp740
a(I-17
I-31
tp741
a(I-16
I-31
tp742
a(I-17
I-30
tp743
a(I-16
I-30
tp744
a(I-17
I-29
tp745
a(I-16
I-29
tp746
a(I-17
I-28
tp747
a(I-16
I-28
tp748
a(I-17
I-27
tp749
a(I-16
I-27
tp750
a(I-17
I-26
tp751
a(I-16
I-26
tp752
a(I-17
I-25
tp753
a(I-16
I-25
tp754
a(I-17
I-24
tp755
a(I-16
I-24
tp756
a(I-17
I-23
tp757
a(I-16
I-23
tp758
a(I-17
I-22
tp759
a(I-16
I-22
tp760
a(I-17
I-21
tp761
a(I-16
I-21
tp762
a(I-17
I-20
tp763
a(I-16
I-20
tp764
a(I-17
I-19
tp765
a(I-16
I-19
tp766
a(I-17
I-18
tp767
a(I-16
I-18
tp768
a(I-17
I-17
tp769
a(I-16
I-17
tp770
a(I-17
I-16
tp771
a(I-16
I-16
tp772
a(I-17
I-15
tp773
a(I-16
I-15
tp774
a(I-17
I-14
tp775
a(I-16
I-14
tp776
a(I-17
I-13
tp777
a(I-16
I-13
tp778
a(I-17
I-12
tp779
a(I-16
I-12
tp780
a(I-17
I-11
tp781
a(I-16
I-11
tp782
a(I-17
I-10
tp783
a(I-16
I-10
tp784
a(I-17
I-9
tp785
a(I-16
I-9
tp786
a(I-17
I-8
tp787
a(I-16
I-8
tp788
a(I-17
I-7
tp789
a(I-16
I-7
tp790
a(I-17
I-6
tp791
a(I-16
I-6
tp792
a(I-17
I-5
tp793
a(I-16
I-5
tp794
a(I-17
I-4
tp795
a(I-16
I-4
tp796
a(I-17
I-3
tp797
a(I-16
I-3
tp798
a(I-17
I-2
tp799
a(I-16
I-2
tp800
a(I-17
I-1
tp801
a(I-16
I-1
tp802
a(I-17
I0
tp803
a(I-16
I0
tp804
a(I-17
I1
tp805
a(I-16
I1
tp806
a(I-17
I2
tp807
a(I-16
I2
tp808
a(I-17
I3
tp809
a(I-16
I3
tp810
a(I-17
I4
tp811
a(I-16
I4
tp812
a(I-17
I5
tp813
a(I-16
I5
tp814
a(I-17
I6
tp815
a(I-16
I6
tp816
a(I-17
I7
tp817
a(I-16
I7
tp818
a(I-17
I8
tp819
a(I-16
I8
tp820
a(I-17
I9
tp821
a(I-16
I9
tp822
a(I-17
I10
tp823
a(I-16
I10
tp824
a(I-17
I11
tp825
a(I-16
I11
tp826
a(I-17
I12
tp827
a(I-16
I12
tp828
a(I-76
I-40
tp829
a(I-76
I-39
tp830
a(I-75
I-40
tp831
a(I-75
I-39
tp832
a(I-74
I-40
tp833
a(I-74
I-39
tp834
a(I-73
I-40
tp835
a(I-73
I-39
tp836
a(I-72
I-40
tp837
a(I-72
I-39
tp838
a(I-71
I-40
tp839
a(I-71
I-39
tp840
a(I-70
I-40
tp841
a(I-70
I-39
tp842
a(I-69
I-40
tp843
a(I-69
I-39
tp844
a(I-68
I-40
tp845
a(I-68
I-39
tp846
a(I-67
I-40
tp847
a(I-67
I-39
tp848
a(I-66
I-40
tp849
a(I-66
I-39
tp850
a(I-65
I-40
tp851
a(I-65
I-39
tp852
a(I-64
I-40
tp853
a(I-64
I-39
tp854
a(I-63
I-40
tp855
a(I-63
I-39
tp856
a(I-62
I-40
tp857
a(I-62
I-39
tp858
a(I-61
I-40
tp859
a(I-61
I-39
tp860
a(I-60
I-40
tp861
a(I-60
I-39
tp862
a(I-59
I-40
tp863
a(I-59
I-39
tp864
a(I-58
I-40
tp865
a(I-58
I-39
tp866
a(I-57
I-40
tp867
a(I-57
I-39
tp868
a(I-56
I-40
tp869
a(I-56
I-39
tp870
a(I-55
I-40
tp871
a(I-55
I-39
tp872
a(I-54
I-40
tp873
a(I-54
I-39
tp874
a(I-53
I-40
tp875
a(I-53
I-39
tp876
a(I-52
I-40
tp877
a(I-52
I-39
tp878
a(I-51
I-40
tp879
a(I-51
I-39
tp880
a(I-50
I-40
tp881
a(I-50
I-39
tp882
a(I-49
I-40
tp883
a(I-49
I-39
tp884
a(I-48
I-40
tp885
a(I-48
I-39
tp886
a(I-47
I-40
tp887
a(I-47
I-39
tp888
a(I-46
I-40
tp889
a(I-46
I-39
tp890
a(I-45
I-40
tp891
a(I-45
I-39
tp892
a(I-44
I-40
tp893
a(I-44
I-39
tp894
a(I-43
I-40
tp895
a(I-43
I-39
tp896
a(I-42
I-40
tp897
a(I-42
I-39
tp898
a(I-41
I-40
tp899
a(I-41
I-39
tp900
a(I-40
I-40
tp901
a(I-40
I-39
tp902
a(I-39
I-40
tp903
a(I-39
I-39
tp904
a(I-38
I-40
tp905
a(I-38
I-39
tp906
a(I-37
I-40
tp907
a(I-37
I-39
tp908
a(I-36
I-40
tp909
a(I-36
I-39
tp910
a(I-35
I-40
tp911
a(I-35
I-39
tp912
a(I-34
I-40
tp913
a(I-34
I-39
tp914
a(I-33
I-40
tp915
a(I-33
I-39
tp916
a(I-32
I-40
tp917
a(I-32
I-39
tp918
a(I-31
I-40
tp919
a(I-31
I-39
tp920
a(I-30
I-40
tp921
a(I-30
I-39
tp922
a(I-29
I-40
tp923
a(I-29
I-39
tp924
a(I-28
I-40
tp925
a(I-28
I-39
tp926
a(I-27
I-40
tp927
a(I-27
I-39
tp928
a(I-26
I-40
tp929
a(I-26
I-39
tp930
a(I-25
I-40
tp931
a(I-25
I-39
tp932
a(I-24
I-40
tp933
a(I-24
I-39
tp934
a(I-23
I-40
tp935
a(I-23
I-39
tp936
a(I-22
I-40
tp937
a(I-22
I-39
tp938
a(I-21
I-40
tp939
a(I-21
I-39
tp940
a(I-20
I-40
tp941
a(I-20
I-39
tp942
a(I-19
I-40
tp943
a(I-19
I-39
tp944
a(I-18
I-40
tp945
a(I-18
I-39
tp946
a(I-17
I-40
tp947
a(I-17
I-39
tp948
a(I-16
I-40
tp949
a(I-16
I-39
tp950
a(I-15
I-40
tp951
a(I-15
I-39
tp952
a(I-76
I-47
tp953
a(I-75
I-47
tp954
a(I-76
I-46
tp955
a(I-75
I-46
tp956
a(I-76
I-45
tp957
a(I-75
I-45
tp958
a(I-76
I-44
tp959
a(I-75
I-44
tp960
a(I-76
I-43
tp961
a(I-75
I-43
tp962
a(I-76
I-42
tp963
a(I-75
I-42
tp964
a(I-76
I-41
tp965
a(I-75
I-41
tp966
a(I-76
I-40
tp967
a(I-75
I-40
tp968
a(I-76
I-39
tp969
a(I-75
I-39
tp970
a(I-76
I-38
tp971
a(I-75
I-38
tp972
a(I-81
I-47
tp973
a(I-81
I-46
tp974
a(I-80
I-47
tp975
a(I-80
I-46
tp976
a(I-79
I-47
tp977
a(I-79
I-46
tp978
a(I-78
I-47
tp979
a(I-78
I-46
tp980
a(I-77
I-47
tp981
a(I-77
I-46
tp982
a(I-76
I-47
tp983
a(I-76
I-46
tp984
a(I-75
I-47
tp985
a(I-75
I-46
tp986
a(I-74
I-47
tp987
a(I-74
I-46
tp988
a(I-81
I-64
tp989
a(I-80
I-64
tp990
a(I-81
I-63
tp991
a(I-80
I-63
tp992
a(I-81
I-62
tp993
a(I-80
I-62
tp994
a(I-81
I-61
tp995
a(I-80
I-61
tp996
a(I-81
I-60
tp997
a(I-80
I-60
tp998
a(I-81
I-59
tp999
a(I-80
I-59
tp1000
a(I-81
I-58
tp1001
a(I-80
I-58
tp1002
a(I-81
I-57
tp1003
a(I-80
I-57
tp1004
a(I-81
I-56
tp1005
a(I-80
I-56
tp1006
a(I-81
I-55
tp1007
a(I-80
I-55
tp1008
a(I-81
I-54
tp1009
a(I-80
I-54
tp1010
a(I-81
I-53
tp1011
a(I-80
I-53
tp1012
a(I-81
I-52
tp1013
a(I-80
I-52
tp1014
a(I-81
I-51
tp1015
a(I-80
I-51
tp1016
a(I-81
I-50
tp1017
a(I-80
I-50
tp1018
a(I-81
I-49
tp1019
a(I-80
I-49
tp1020
a(I-81
I-48
tp1021
a(I-80
I-48
tp1022
a(I-81
I-47
tp1023
a(I-80
I-47
tp1024
a(I-81
I-46
tp1025
a(I-80
I-46
tp1026
a(I-81
I-45
tp1027
a(I-80
I-45
tp1028
a(I-88
I-68
tp1029
a(I-88
I-67
tp1030
a(I-87
I-68
tp1031
a(I-87
I-67
tp1032
a(I-86
I-68
tp1033
a(I-86
I-67
tp1034
a(I-85
I-68
tp1035
a(I-85
I-67
tp1036
a(I-84
I-68
tp1037
a(I-84
I-67
tp1038
a(I-83
I-68
tp1039
a(I-83
I-67
tp1040
a(I-82
I-68
tp1041
a(I-82
I-67
tp1042
a(I-81
I-68
tp1043
a(I-81
I-67
tp1044
a(I-80
I-68
tp1045
a(I-80
I-67
tp1046
a(I-79
I-68
tp1047
a(I-79
I-67
tp1048
a(I-78
I-68
tp1049
a(I-78
I-67
tp1050
a(I-77
I-68
tp1051
a(I-77
I-67
tp1052
a(I-76
I-68
tp1053
a(I-76
I-67
tp1054
a(I-75
I-68
tp1055
a(I-75
I-67
tp1056
a(I-74
I-68
tp1057
a(I-74
I-67
tp1058
a(I-73
I-68
tp1059
a(I-73
I-67
tp1060
a(I-72
I-68
tp1061
a(I-72
I-67
tp1062
a(I-71
I-68
tp1063
a(I-71
I-67
tp1064
a(I-87
I-79
tp1065
a(I-86
I-79
tp1066
a(I-87
I-78
tp1067
a(I-86
I-78
tp1068
a(I-87
I-77
tp1069
a(I-86
I-77
tp1070
a(I-87
I-76
tp1071
a(I-86
I-76
tp1072
a(I-87
I-75
tp1073
a(I-86
I-75
tp1074
a(I-87
I-74
tp1075
a(I-86
I-74
tp1076
a(I-87
I-73
tp1077
a(I-86
I-73
tp1078
a(I-87
I-72
tp1079
a(I-86
I-72
tp1080
a(I-88
I-78
tp1081
a(I-88
I-77
tp1082
a(I-87
I-78
tp1083
a(I-87
I-77
tp1084
a(I-86
I-78
tp1085
a(I-86
I-77
tp1086
a(I-85
I-78
tp1087
a(I-85
I-77
tp1088
a(I-84
I-78
tp1089
a(I-84
I-77
tp1090
a(I-83
I-78
tp1091
a(I-83
I-77
tp1092
a(I-81
I-78
tp1093
a(I-81
I-77
tp1094
a(I-80
I-78
tp1095
a(I-80
I-77
tp1096
a(I-79
I-78
tp1097
a(I-79
I-77
tp1098
a(I-78
I-78
tp1099
a(I-78
I-77
tp1100
a(I-77
I-78
tp1101
a(I-77
I-77
tp1102
a(I-76
I-78
tp1103
a(I-76
I-77
tp1104
a(I-78
I-79
tp1105
a(I-77
I-79
tp1106
a(I-78
I-78
tp1107
a(I-77
I-78
tp1108
a(I-78
I-77
tp1109
a(I-77
I-77
tp1110
a(I-78
I-76
tp1111
a(I-77
I-76
tp1112
a(I-78
I-75
tp1113
a(I-77
I-75
tp1114
a(I-78
I-74
tp1115
a(I-77
I-74
tp1116
a(I-78
I-75
tp1117
a(I-78
I-74
tp1118
a(I-77
I-75
tp1119
a(I-77
I-74
tp1120
a(I-76
I-75
tp1121
a(I-76
I-74
tp1122
a(I-75
I-75
tp1123
a(I-75
I-74
tp1124
a(I-74
I-75
tp1125
a(I-74
I-74
tp1126
a(I-73
I-75
tp1127
a(I-73
I-74
tp1128
a(I-72
I-75
tp1129
a(I-72
I-74
tp1130
a(I-71
I-75
tp1131
a(I-71
I-74
tp1132
a(I-70
I-75
tp1133
a(I-70
I-74
tp1134
a(I-69
I-75
tp1135
a(I-69
I-74
tp1136
a(I-68
I-75
tp1137
a(I-68
I-74
tp1138
a(I-67
I-75
tp1139
a(I-67
I-74
tp1140
a(I-66
I-75
tp1141
a(I-66
I-74
tp1142
a(I-65
I-75
tp1143
a(I-65
I-74
tp1144
a(I-64
I-75
tp1145
a(I-64
I-74
tp1146
a(I-63
I-75
tp1147
a(I-63
I-74
tp1148
a(I-62
I-75
tp1149
a(I-62
I-74
tp1150
a(I-61
I-75
tp1151
a(I-61
I-74
tp1152
a(I-60
I-75
tp1153
a(I-60
I-74
tp1154
a(I-59
I-75
tp1155
a(I-59
I-74
tp1156
a(I-58
I-75
tp1157
a(I-58
I-74
tp1158
a(I-57
I-75
tp1159
a(I-57
I-74
tp1160
a(I-56
I-75
tp1161
a(I-56
I-74
tp1162
a(I-55
I-75
tp1163
a(I-55
I-74
tp1164
a(I-54
I-75
tp1165
a(I-54
I-74
tp1166
a(I-53
I-75
tp1167
a(I-53
I-74
tp1168
a(I-52
I-75
tp1169
a(I-52
I-74
tp1170
a(I-51
I-75
tp1171
a(I-51
I-74
tp1172
a(I-50
I-75
tp1173
a(I-50
I-74
tp1174
a(I-49
I-75
tp1175
a(I-49
I-74
tp1176
a(I-48
I-75
tp1177
a(I-48
I-74
tp1178
a(I-47
I-75
tp1179
a(I-47
I-74
tp1180
a(I-46
I-75
tp1181
a(I-46
I-74
tp1182
a(I-45
I-75
tp1183
a(I-45
I-74
tp1184
a(I-44
I-75
tp1185
a(I-44
I-74
tp1186
a(I-43
I-75
tp1187
a(I-43
I-74
tp1188
a(I-42
I-75
tp1189
a(I-42
I-74
tp1190
a(I-41
I-75
tp1191
a(I-41
I-74
tp1192
a(I-40
I-75
tp1193
a(I-40
I-74
tp1194
a(I-39
I-75
tp1195
a(I-39
I-74
tp1196
a(I-38
I-75
tp1197
a(I-38
I-74
tp1198
a(I-37
I-75
tp1199
a(I-37
I-74
tp1200
a(I-36
I-75
tp1201
a(I-36
I-74
tp1202
a(I-35
I-75
tp1203
a(I-35
I-74
tp1204
a(I-34
I-75
tp1205
a(I-34
I-74
tp1206
a(I-33
I-75
tp1207
a(I-33
I-74
tp1208
a(I-32
I-75
tp1209
a(I-32
I-74
tp1210
a(I-31
I-75
tp1211
a(I-31
I-74
tp1212
a(I-30
I-75
tp1213
a(I-30
I-74
tp1214
a(I-29
I-75
tp1215
a(I-29
I-74
tp1216
a(I-28
I-75
tp1217
a(I-28
I-74
tp1218
a(I-27
I-75
tp1219
a(I-27
I-74
tp1220
a(I-26
I-75
tp1221
a(I-26
I-74
tp1222
a(I-25
I-75
tp1223
a(I-25
I-74
tp1224
a(I-24
I-75
tp1225
a(I-24
I-74
tp1226
a(I-23
I-75
tp1227
a(I-23
I-74
tp1228
a(I-22
I-75
tp1229
a(I-22
I-74
tp1230
a(I-21
I-75
tp1231
a(I-21
I-74
tp1232
a(I-20
I-75
tp1233
a(I-20
I-74
tp1234
a(I-19
I-75
tp1235
a(I-19
I-74
tp1236
a(I-18
I-75
tp1237
a(I-18
I-74
tp1238
a(I-17
I-75
tp1239
a(I-17
I-74
tp1240
a(I-16
I-75
tp1241
a(I-16
I-74
tp1242
a(I-15
I-75
tp1243
a(I-15
I-74
tp1244
a(I-14
I-75
tp1245
a(I-14
I-74
tp1246
a(I-13
I-75
tp1247
a(I-13
I-74
tp1248
a(I-12
I-75
tp1249
a(I-12
I-74
tp1250
a(I-11
I-75
tp1251
a(I-11
I-74
tp1252
a(I-10
I-75
tp1253
a(I-10
I-74
tp1254
a(I-9
I-75
tp1255
a(I-9
I-74
tp1256
a(I-8
I-75
tp1257
a(I-8
I-74
tp1258
a(I-7
I-75
tp1259
a(I-7
I-74
tp1260
a(I-6
I-75
tp1261
a(I-6
I-74
tp1262
a(I-5
I-75
tp1263
a(I-5
I-74
tp1264
a(I-4
I-75
tp1265
a(I-4
I-74
tp1266
a(I-3
I-75
tp1267
a(I-3
I-74
tp1268
a(I-2
I-75
tp1269
a(I-2
I-74
tp1270
a(I-1
I-75
tp1271
a(I-1
I-74
tp1272
a(I0
I-75
tp1273
a(I0
I-74
tp1274
a(I1
I-75
tp1275
a(I1
I-74
tp1276
a(I2
I-75
tp1277
a(I2
I-74
tp1278
a(I3
I-75
tp1279
a(I3
I-74
tp1280
a(I4
I-75
tp1281
a(I4
I-74
tp1282
a(I5
I-75
tp1283
a(I5
I-74
tp1284
a(I6
I-75
tp1285
a(I6
I-74
tp1286
a(I7
I-75
tp1287
a(I7
I-74
tp1288
a(I8
I-75
tp1289
a(I8
I-74
tp1290
a(I9
I-75
tp1291
a(I9
I-74
tp1292
a(I10
I-75
tp1293
a(I10
I-74
tp1294
a(I11
I-75
tp1295
a(I11
I-74
tp1296
a(I12
I-75
tp1297
a(I12
I-74
tp1298
a(I13
I-75
tp1299
a(I13
I-74
tp1300
a(I14
I-75
tp1301
a(I14
I-74
tp1302
a(I15
I-75
tp1303
a(I15
I-74
tp1304
a(I16
I-75
tp1305
a(I16
I-74
tp1306
a(I17
I-75
tp1307
a(I17
I-74
tp1308
a(I18
I-75
tp1309
a(I18
I-74
tp1310
a(I19
I-75
tp1311
a(I19
I-74
tp1312
a(I20
I-75
tp1313
a(I20
I-74
tp1314
a(I21
I-75
tp1315
a(I21
I-74
tp1316
a(I22
I-75
tp1317
a(I22
I-74
tp1318
a(I23
I-75
tp1319
a(I23
I-74
tp1320
a(I24
I-75
tp1321
a(I24
I-74
tp1322
a(I25
I-75
tp1323
a(I25
I-74
tp1324
a(I26
I-75
tp1325
a(I26
I-74
tp1326
a(I27
I-75
tp1327
a(I27
I-74
tp1328
a(I28
I-75
tp1329
a(I28
I-74
tp1330
a(I29
I-75
tp1331
a(I29
I-74
tp1332
a(I30
I-75
tp1333
a(I30
I-74
tp1334
a(I31
I-75
tp1335
a(I31
I-74
tp1336
a(I32
I-75
tp1337
a(I32
I-74
tp1338
a(I33
I-75
tp1339
a(I33
I-74
tp1340
a(I34
I-75
tp1341
a(I34
I-74
tp1342
a(I35
I-75
tp1343
a(I35
I-74
tp1344
a(I36
I-75
tp1345
a(I36
I-74
tp1346
a(I37
I-75
tp1347
a(I37
I-74
tp1348
a(I38
I-75
tp1349
a(I38
I-74
tp1350
a(I39
I-75
tp1351
a(I39
I-74
tp1352
a(I40
I-75
tp1353
a(I40
I-74
tp1354
a(I41
I-75
tp1355
a(I41
I-74
tp1356
a(I42
I-75
tp1357
a(I42
I-74
tp1358
a(I43
I-75
tp1359
a(I43
I-74
tp1360
a(I44
I-75
tp1361
a(I44
I-74
tp1362
a(I45
I-75
tp1363
a(I45
I-74
tp1364
a(I46
I-75
tp1365
a(I46
I-74
tp1366
a(I47
I-75
tp1367
a(I47
I-74
tp1368
a(I48
I-75
tp1369
a(I48
I-74
tp1370
a(I49
I-75
tp1371
a(I49
I-74
tp1372
a(I50
I-75
tp1373
a(I50
I-74
tp1374
a(I51
I-75
tp1375
a(I51
I-74
tp1376
a(I52
I-75
tp1377
a(I52
I-74
tp1378
a(I53
I-75
tp1379
a(I53
I-74
tp1380
a(I-51
I53
tp1381
a(I-51
I54
tp1382
a(I-50
I53
tp1383
a(I-50
I54
tp1384
a(I-49
I53
tp1385
a(I-49
I54
tp1386
a(I-48
I53
tp1387
a(I-48
I54
tp1388
a(I52
I-75
tp1389
a(I52
I-74
tp1390
a(I53
I-75
tp1391
a(I53
I-74
tp1392
a(I54
I-75
tp1393
a(I54
I-74
tp1394
a(I55
I-75
tp1395
a(I55
I-74
tp1396
a(I56
I-75
tp1397
a(I56
I-74
tp1398
a(I57
I-75
tp1399
a(I57
I-74
tp1400
a(I58
I-75
tp1401
a(I58
I-74
tp1402
a(I59
I-75
tp1403
a(I59
I-74
tp1404
a(I60
I-75
tp1405
a(I60
I-74
tp1406
a(I61
I-75
tp1407
a(I61
I-74
tp1408
a(I62
I-75
tp1409
a(I62
I-74
tp1410
a(I63
I-75
tp1411
a(I63
I-74
tp1412
a(I64
I-75
tp1413
a(I64
I-74
tp1414
a(I65
I-75
tp1415
a(I65
I-74
tp1416
a(I66
I-75
tp1417
a(I66
I-74
tp1418
a(I67
I-75
tp1419
a(I67
I-74
tp1420
a(I68
I-75
tp1421
a(I68
I-74
tp1422
a(I69
I-75
tp1423
a(I69
I-74
tp1424
a(I70
I-75
tp1425
a(I70
I-74
tp1426
a(I71
I-75
tp1427
a(I71
I-74
tp1428
a(I72
I-75
tp1429
a(I72
I-74
tp1430
a(I73
I-75
tp1431
a(I73
I-74
tp1432
a(I74
I-75
tp1433
a(I74
I-74
tp1434
a(I75
I-75
tp1435
a(I75
I-74
tp1436
a(I76
I-75
tp1437
a(I76
I-74
tp1438
a(I77
I-75
tp1439
a(I77
I-74
tp1440
a(I78
I-75
tp1441
a(I78
I-74
tp1442
a(I79
I-75
tp1443
a(I79
I-74
tp1444
a(I80
I-75
tp1445
a(I80
I-74
tp1446
a(I81
I-75
tp1447
a(I81
I-74
tp1448
a(I82
I-75
tp1449
a(I82
I-74
tp1450
a(I83
I-75
tp1451
a(I83
I-74
tp1452
a(I84
I-75
tp1453
a(I84
I-74
tp1454
a(I85
I-75
tp1455
a(I85
I-74
tp1456
a(I-68
I-68
tp1457
a(I-67
I-68
tp1458
a(I-68
I-67
tp1459
a(I-67
I-67
tp1460
a(I-68
I-66
tp1461
a(I-67
I-66
tp1462
a(I-68
I-65
tp1463
a(I-67
I-65
tp1464
a(I-68
I-64
tp1465
a(I-67
I-64
tp1466
a(I-68
I-63
tp1467
a(I-67
I-63
tp1468
a(I-68
I-62
tp1469
a(I-67
I-62
tp1470
a(I-68
I-61
tp1471
a(I-67
I-61
tp1472
a(I-68
I-60
tp1473
a(I-67
I-60
tp1474
a(I-68
I-59
tp1475
a(I-67
I-59
tp1476
a(I-68
I-58
tp1477
a(I-67
I-58
tp1478
a(I-68
I-57
tp1479
a(I-67
I-57
tp1480
a(I-68
I-56
tp1481
a(I-67
I-56
tp1482
a(I-68
I-55
tp1483
a(I-67
I-55
tp1484
a(I-68
I-54
tp1485
a(I-67
I-54
tp1486
a(I-68
I-53
tp1487
a(I-67
I-53
tp1488
a(I-68
I-52
tp1489
a(I-67
I-52
tp1490
a(I-68
I-51
tp1491
a(I-67
I-51
tp1492
a(I-68
I-50
tp1493
a(I-67
I-50
tp1494
a(I-68
I-49
tp1495
a(I-67
I-49
tp1496
a(I-68
I-48
tp1497
a(I-67
I-48
tp1498
a(I-68
I-47
tp1499
a(I-67
I-47
tp1500
a(I-68
I-46
tp1501
a(I-67
I-46
tp1502
a(I-68
I-45
tp1503
a(I-67
I-45
tp1504
a(I-76
I-47
tp1505
a(I-76
I-46
tp1506
a(I-75
I-47
tp1507
a(I-75
I-46
tp1508
a(I-74
I-47
tp1509
a(I-74
I-46
tp1510
a(I-73
I-47
tp1511
a(I-73
I-46
tp1512
a(I-72
I-47
tp1513
a(I-72
I-46
tp1514
a(I-71
I-47
tp1515
a(I-71
I-46
tp1516
a(I-70
I-47
tp1517
a(I-70
I-46
tp1518
a(I-69
I-47
tp1519
a(I-69
I-46
tp1520
a(I-68
I-47
tp1521
a(I-68
I-46
tp1522
a(I-67
I-47
tp1523
a(I-67
I-46
tp1524
a(I-68
I-47
tp1525
a(I-67
I-47
tp1526
a(I-68
I-46
tp1527
a(I-67
I-46
tp1528
a(I-68
I-45
tp1529
a(I-67
I-45
tp1530
a(I-68
I-44
tp1531
a(I-67
I-44
tp1532
a(I-68
I-43
tp1533
a(I-67
I-43
tp1534
a(I-68
I-42
tp1535
a(I-67
I-42
tp1536
a(I-68
I-41
tp1537
a(I-67
I-41
tp1538
a(I-68
I-40
tp1539
a(I-67
I-40
tp1540
a(I-68
I-39
tp1541
a(I-67
I-39
tp1542
a(I-68
I-38
tp1543
a(I-67
I-38
tp1544
a(I-49
I41
tp1545
a(I-48
I41
tp1546
a(I-49
I42
tp1547
a(I-48
I42
tp1548
a(I-49
I43
tp1549
a(I-48
I43
tp1550
a(I-49
I44
tp1551
a(I-48
I44
tp1552
a(I-49
I45
tp1553
a(I-48
I45
tp1554
a(I-49
I46
tp1555
a(I-48
I46
tp1556
a(I-49
I47
tp1557
a(I-48
I47
tp1558
a(I-49
I48
tp1559
a(I-48
I48
tp1560
a(I-49
I49
tp1561
a(I-48
I49
tp1562
a(I-49
I50
tp1563
a(I-48
I50
tp1564
a(I-49
I51
tp1565
a(I-48
I51
tp1566
a(I-49
I52
tp1567
a(I-48
I52
tp1568
a(I-49
I53
tp1569
a(I-48
I53
tp1570
a(I-49
I54
tp1571
a(I-48
I54
tp1572
a(I-68
I-66
tp1573
a(I-68
I-65
tp1574
a(I-67
I-66
tp1575
a(I-67
I-65
tp1576
a(I-66
I-66
tp1577
a(I-66
I-65
tp1578
a(I-65
I-66
tp1579
a(I-65
I-65
tp1580
a(I-64
I-66
tp1581
a(I-64
I-65
tp1582
a(I-63
I-66
tp1583
a(I-63
I-65
tp1584
a(I-62
I-69
tp1585
a(I-61
I-69
tp1586
a(I-62
I-68
tp1587
a(I-61
I-68
tp1588
a(I-62
I-67
tp1589
a(I-61
I-67
tp1590
a(I-62
I-66
tp1591
a(I-61
I-66
tp1592
a(I-62
I-65
tp1593
a(I-61
I-65
tp1594
a(I-62
I-64
tp1595
a(I-61
I-64
tp1596
a(I-62
I-66
tp1597
a(I-62
I-65
tp1598
a(I-61
I-66
tp1599
a(I-61
I-65
tp1600
a(I-60
I-66
tp1601
a(I-60
I-65
tp1602
a(I-59
I-66
tp1603
a(I-59
I-65
tp1604
a(I-58
I-66
tp1605
a(I-58
I-65
tp1606
a(I-57
I-66
tp1607
a(I-57
I-65
tp1608
a(I-56
I-66
tp1609
a(I-56
I-65
tp1610
a(I-55
I-66
tp1611
a(I-55
I-65
tp1612
a(I-54
I-66
tp1613
a(I-54
I-65
tp1614
a(I-53
I-66
tp1615
a(I-53
I-65
tp1616
a(I-52
I-66
tp1617
a(I-52
I-65
tp1618
a(I-51
I-66
tp1619
a(I-51
I-65
tp1620
a(I-50
I-66
tp1621
a(I-50
I-65
tp1622
a(I-49
I-66
tp1623
a(I-49
I-65
tp1624
a(I-48
I-66
tp1625
a(I-48
I-65
tp1626
a(I-47
I-66
tp1627
a(I-47
I-65
tp1628
a(I-46
I-66
tp1629
a(I-46
I-65
tp1630
a(I-45
I-66
tp1631
a(I-45
I-65
tp1632
a(I-44
I-66
tp1633
a(I-44
I-65
tp1634
a(I-43
I-66
tp1635
a(I-43
I-65
tp1636
a(I-42
I-66
tp1637
a(I-42
I-65
tp1638
a(I-41
I-66
tp1639
a(I-41
I-65
tp1640
a(I-40
I-66
tp1641
a(I-40
I-65
tp1642
a(I-39
I-66
tp1643
a(I-39
I-65
tp1644
a(I-40
I-69
tp1645
a(I-39
I-69
tp1646
a(I-40
I-68
tp1647
a(I-39
I-68
tp1648
a(I-40
I-67
tp1649
a(I-39
I-67
tp1650
a(I-40
I-66
tp1651
a(I-39
I-66
tp1652
a(I-40
I-65
tp1653
a(I-39
I-65
tp1654
a(I-40
I-64
tp1655
a(I-39
I-64
tp1656
a(I-50
I42
tp1657
a(I-50
I43
tp1658
a(I-49
I42
tp1659
a(I-49
I43
tp1660
a(I-48
I42
tp1661
a(I-48
I43
tp1662
a(I-47
I42
tp1663
a(I-47
I43
tp1664
a(I-46
I42
tp1665
a(I-46
I43
tp1666
a(I-45
I42
tp1667
a(I-45
I43
tp1668
a(I-44
I42
tp1669
a(I-44
I43
tp1670
a(I-43
I42
tp1671
a(I-43
I43
tp1672
a(I-42
I42
tp1673
a(I-42
I43
tp1674
a(I-41
I42
tp1675
a(I-41
I43
tp1676
a(I-40
I42
tp1677
a(I-40
I43
tp1678
a(I-39
I42
tp1679
a(I-39
I43
tp1680
a(I-38
I42
tp1681
a(I-38
I43
tp1682
a(I-37
I42
tp1683
a(I-37
I43
tp1684
a(I-36
I42
tp1685
a(I-36
I43
tp1686
a(I-35
I42
tp1687
a(I-35
I43
tp1688
a(I-34
I42
tp1689
a(I-34
I43
tp1690
a(I-33
I42
tp1691
a(I-33
I43
tp1692
a(I-32
I42
tp1693
a(I-32
I43
tp1694
a(I-31
I42
tp1695
a(I-31
I43
tp1696
a(I-30
I42
tp1697
a(I-30
I43
tp1698
a(I-29
I42
tp1699
a(I-29
I43
tp1700
a(I-28
I42
tp1701
a(I-28
I43
tp1702
a(I-27
I42
tp1703
a(I-27
I43
tp1704
a(I-26
I42
tp1705
a(I-26
I43
tp1706
a(I-25
I42
tp1707
a(I-25
I43
tp1708
a(I-24
I42
tp1709
a(I-24
I43
tp1710
a(I-23
I42
tp1711
a(I-23
I43
tp1712
a(I-22
I42
tp1713
a(I-22
I43
tp1714
a(I-21
I42
tp1715
a(I-21
I43
tp1716
a(I-20
I42
tp1717
a(I-20
I43
tp1718
a(I-19
I42
tp1719
a(I-19
I43
tp1720
a(I-18
I42
tp1721
a(I-18
I43
tp1722
a(I-17
I42
tp1723
a(I-17
I43
tp1724
a(I-16
I42
tp1725
a(I-16
I43
tp1726
a(I-15
I42
tp1727
a(I-15
I43
tp1728
a(I-14
I42
tp1729
a(I-14
I43
tp1730
a(I-13
I42
tp1731
a(I-13
I43
tp1732
a(I-12
I42
tp1733
a(I-12
I43
tp1734
a(I-11
I42
tp1735
a(I-11
I43
tp1736
a(I-10
I42
tp1737
a(I-10
I43
tp1738
a(I-9
I42
tp1739
a(I-9
I43
tp1740
a(I-8
I42
tp1741
a(I-8
I43
tp1742
a(I-7
I42
tp1743
a(I-7
I43
tp1744
a(I-6
I42
tp1745
a(I-6
I43
tp1746
a(I-5
I42
tp1747
a(I-5
I43
tp1748
a(I-38
I-66
tp1749
a(I-38
I-65
tp1750
a(I-37
I-66
tp1751
a(I-37
I-65
tp1752
a(I-36
I-66
tp1753
a(I-36
I-65
tp1754
a(I-35
I-66
tp1755
a(I-35
I-65
tp1756
a(I-34
I-66
tp1757
a(I-34
I-65
tp1758
a(I-33
I-66
tp1759
a(I-33
I-65
tp1760
a(I-36
I-66
tp1761
a(I-35
I-66
tp1762
a(I-36
I-65
tp1763
a(I-35
I-65
tp1764
a(I-36
I-64
tp1765
a(I-35
I-64
tp1766
a(I-36
I-63
tp1767
a(I-35
I-63
tp1768
a(I-36
I-62
tp1769
a(I-35
I-62
tp1770
a(I-36
I-61
tp1771
a(I-35
I-61
tp1772
a(I-36
I-60
tp1773
a(I-35
I-60
tp1774
a(I-36
I-59
tp1775
a(I-35
I-59
tp1776
a(I-36
I-58
tp1777
a(I-35
I-58
tp1778
a(I-36
I-57
tp1779
a(I-35
I-57
tp1780
a(I-36
I-56
tp1781
a(I-35
I-56
tp1782
a(I-36
I-55
tp1783
a(I-35
I-55
tp1784
a(I-36
I-54
tp1785
a(I-35
I-54
tp1786
a(I-36
I-53
tp1787
a(I-35
I-53
tp1788
a(I-36
I-52
tp1789
a(I-35
I-52
tp1790
a(I-36
I-51
tp1791
a(I-35
I-51
tp1792
a(I-36
I-50
tp1793
a(I-35
I-50
tp1794
a(I-36
I-49
tp1795
a(I-35
I-49
tp1796
a(I-36
I-48
tp1797
a(I-35
I-48
tp1798
a(I-36
I-47
tp1799
a(I-35
I-47
tp1800
a(I-36
I-46
tp1801
a(I-35
I-46
tp1802
a(I-36
I-45
tp1803
a(I-35
I-45
tp1804
a(I-36
I-44
tp1805
a(I-35
I-44
tp1806
a(I-36
I-43
tp1807
a(I-35
I-43
tp1808
a(I-36
I-42
tp1809
a(I-35
I-42
tp1810
a(I-36
I-41
tp1811
a(I-35
I-41
tp1812
a(I-36
I-40
tp1813
a(I-35
I-40
tp1814
a(I-36
I-39
tp1815
a(I-35
I-39
tp1816
a(I-17
I-42
tp1817
a(I-16
I-42
tp1818
a(I-17
I-41
tp1819
a(I-16
I-41
tp1820
a(I-17
I-40
tp1821
a(I-16
I-40
tp1822
a(I-17
I-39
tp1823
a(I-16
I-39
tp1824
a(I-17
I-41
tp1825
a(I-17
I-40
tp1826
a(I-16
I-41
tp1827
a(I-16
I-40
tp1828
a(I-15
I-41
tp1829
a(I-15
I-40
tp1830
a(I-14
I-41
tp1831
a(I-14
I-40
tp1832
a(I-13
I-41
tp1833
a(I-13
I-40
tp1834
a(I-12
I-41
tp1835
a(I-12
I-40
tp1836
a(I-11
I-41
tp1837
a(I-11
I-40
tp1838
a(I-10
I-41
tp1839
a(I-10
I-40
tp1840
a(I-9
I-41
tp1841
a(I-9
I-40
tp1842
a(I-8
I-41
tp1843
a(I-8
I-40
tp1844
a(I-7
I-41
tp1845
a(I-7
I-40
tp1846
a(I-6
I-41
tp1847
a(I-6
I-40
tp1848
a(I-5
I-41
tp1849
a(I-5
I-40
tp1850
a(I-4
I-41
tp1851
a(I-4
I-40
tp1852
a(I-3
I-41
tp1853
a(I-3
I-40
tp1854
a(I-2
I-41
tp1855
a(I-2
I-40
tp1856
a(I-1
I-41
tp1857
a(I-1
I-40
tp1858
a(I0
I-41
tp1859
a(I0
I-40
tp1860
a(I1
I-41
tp1861
a(I1
I-40
tp1862
a(I2
I-41
tp1863
a(I2
I-40
tp1864
a(I3
I-41
tp1865
a(I3
I-40
tp1866
a(I4
I-41
tp1867
a(I4
I-40
tp1868
a(I5
I-41
tp1869
a(I5
I-40
tp1870
a(I6
I-41
tp1871
a(I6
I-40
tp1872
a(I7
I-41
tp1873
a(I7
I-40
tp1874
a(I8
I-41
tp1875
a(I8
I-40
tp1876
a(I9
I-41
tp1877
a(I9
I-40
tp1878
a(I10
I-41
tp1879
a(I10
I-40
tp1880
a(I11
I-41
tp1881
a(I11
I-40
tp1882
a(I12
I-41
tp1883
a(I12
I-40
tp1884
a(I13
I-41
tp1885
a(I13
I-40
tp1886
a(I14
I-41
tp1887
a(I14
I-40
tp1888
a(I15
I-41
tp1889
a(I15
I-40
tp1890
a(I16
I-41
tp1891
a(I16
I-40
tp1892
a(I17
I-41
tp1893
a(I17
I-40
tp1894
a(I18
I-41
tp1895
a(I18
I-40
tp1896
a(I19
I-41
tp1897
a(I19
I-40
tp1898
a(I20
I-41
tp1899
a(I20
I-40
tp1900
a(I-33
I-69
tp1901
a(I-32
I-69
tp1902
a(I-33
I-68
tp1903
a(I-32
I-68
tp1904
a(I-33
I-67
tp1905
a(I-32
I-67
tp1906
a(I-33
I-66
tp1907
a(I-32
I-66
tp1908
a(I-33
I-65
tp1909
a(I-32
I-65
tp1910
a(I-33
I-64
tp1911
a(I-32
I-64
tp1912
a(I-33
I-66
tp1913
a(I-33
I-65
tp1914
a(I-32
I-66
tp1915
a(I-32
I-65
tp1916
a(I-31
I-66
tp1917
a(I-31
I-65
tp1918
a(I-30
I-66
tp1919
a(I-30
I-65
tp1920
a(I-29
I-66
tp1921
a(I-29
I-65
tp1922
a(I-28
I-66
tp1923
a(I-28
I-65
tp1924
a(I-27
I-66
tp1925
a(I-27
I-65
tp1926
a(I-26
I-66
tp1927
a(I-26
I-65
tp1928
a(I-25
I-66
tp1929
a(I-25
I-65
tp1930
a(I-24
I-66
tp1931
a(I-24
I-65
tp1932
a(I-23
I-66
tp1933
a(I-23
I-65
tp1934
a(I-22
I-66
tp1935
a(I-22
I-65
tp1936
a(I-21
I-66
tp1937
a(I-21
I-65
tp1938
a(I-20
I-66
tp1939
a(I-20
I-65
tp1940
a(I-19
I-66
tp1941
a(I-19
I-65
tp1942
a(I-18
I-66
tp1943
a(I-18
I-65
tp1944
a(I-17
I-66
tp1945
a(I-17
I-65
tp1946
a(I-16
I-66
tp1947
a(I-16
I-65
tp1948
a(I-15
I-66
tp1949
a(I-15
I-65
tp1950
a(I-14
I-66
tp1951
a(I-14
I-65
tp1952
a(I-13
I-66
tp1953
a(I-13
I-65
tp1954
a(I-12
I-66
tp1955
a(I-12
I-65
tp1956
a(I-11
I-66
tp1957
a(I-11
I-65
tp1958
a(I-10
I-66
tp1959
a(I-10
I-65
tp1960
a(I-9
I-66
tp1961
a(I-9
I-65
tp1962
a(I-8
I-66
tp1963
a(I-8
I-65
tp1964
a(I-7
I-66
tp1965
a(I-7
I-65
tp1966
a(I-6
I-66
tp1967
a(I-6
I-65
tp1968
a(I-7
I-69
tp1969
a(I-6
I-69
tp1970
a(I-7
I-68
tp1971
a(I-6
I-68
tp1972
a(I-7
I-67
tp1973
a(I-6
I-67
tp1974
a(I-7
I-66
tp1975
a(I-6
I-66
tp1976
a(I-7
I-65
tp1977
a(I-6
I-65
tp1978
a(I-7
I-64
tp1979
a(I-6
I-64
tp1980
a(I-4
I-67
tp1981
a(I-3
I-67
tp1982
a(I-4
I-66
tp1983
a(I-3
I-66
tp1984
a(I-4
I-65
tp1985
a(I-3
I-65
tp1986
a(I-4
I-64
tp1987
a(I-3
I-64
tp1988
a(I-4
I-63
tp1989
a(I-3
I-63
tp1990
a(I-4
I-62
tp1991
a(I-3
I-62
tp1992
a(I-4
I-61
tp1993
a(I-3
I-61
tp1994
a(I-4
I-60
tp1995
a(I-3
I-60
tp1996
a(I-4
I-59
tp1997
a(I-3
I-59
tp1998
a(I-4
I-58
tp1999
a(I-3
I-58
tp2000
a(I-4
I-57
tp2001
a(I-3
I-57
tp2002
a(I-4
I-56
tp2003
a(I-3
I-56
tp2004
a(I-4
I-55
tp2005
a(I-3
I-55
tp2006
a(I-4
I-54
tp2007
a(I-3
I-54
tp2008
a(I-4
I-53
tp2009
a(I-3
I-53
tp2010
a(I-4
I-52
tp2011
a(I-3
I-52
tp2012
a(I-4
I-51
tp2013
a(I-3
I-51
tp2014
a(I-4
I-50
tp2015
a(I-3
I-50
tp2016
a(I-4
I-49
tp2017
a(I-3
I-49
tp2018
a(I-4
I-48
tp2019
a(I-3
I-48
tp2020
a(I-4
I-47
tp2021
a(I-3
I-47
tp2022
a(I-4
I-46
tp2023
a(I-3
I-46
tp2024
a(I-4
I-45
tp2025
a(I-3
I-45
tp2026
a(I-4
I-44
tp2027
a(I-3
I-44
tp2028
a(I-4
I-43
tp2029
a(I-3
I-43
tp2030
a(I-4
I-42
tp2031
a(I-3
I-42
tp2032
a(I-4
I-41
tp2033
a(I-3
I-41
tp2034
a(I-4
I-40
tp2035
a(I-3
I-40
tp2036
a(I9
I-64
tp2037
a(I10
I-64
tp2038
a(I9
I-63
tp2039
a(I10
I-63
tp2040
a(I9
I-62
tp2041
a(I10
I-62
tp2042
a(I9
I-61
tp2043
a(I10
I-61
tp2044
a(I9
I-60
tp2045
a(I10
I-60
tp2046
a(I9
I-59
tp2047
a(I10
I-59
tp2048
a(I9
I-58
tp2049
a(I10
I-58
tp2050
a(I9
I-57
tp2051
a(I10
I-57
tp2052
a(I9
I-56
tp2053
a(I10
I-56
tp2054
a(I9
I-55
tp2055
a(I10
I-55
tp2056
a(I9
I-54
tp2057
a(I10
I-54
tp2058
a(I9
I-53
tp2059
a(I10
I-53
tp2060
a(I9
I-52
tp2061
a(I10
I-52
tp2062
a(I9
I-51
tp2063
a(I10
I-51
tp2064
a(I9
I-50
tp2065
a(I10
I-50
tp2066
a(I9
I-49
tp2067
a(I10
I-49
tp2068
a(I9
I-48
tp2069
a(I10
I-48
tp2070
a(I9
I-47
tp2071
a(I10
I-47
tp2072
a(I9
I-46
tp2073
a(I10
I-46
tp2074
a(I9
I-45
tp2075
a(I10
I-45
tp2076
a(I9
I-44
tp2077
a(I10
I-44
tp2078
a(I9
I-43
tp2079
a(I10
I-43
tp2080
a(I9
I-42
tp2081
a(I10
I-42
tp2082
a(I9
I-41
tp2083
a(I10
I-41
tp2084
a(I9
I-40
tp2085
a(I10
I-40
tp2086
a(I9
I-39
tp2087
a(I10
I-39
tp2088
a(I4
I-64
tp2089
a(I4
I-63
tp2090
a(I5
I-64
tp2091
a(I5
I-63
tp2092
a(I6
I-64
tp2093
a(I6
I-63
tp2094
a(I7
I-64
tp2095
a(I7
I-63
tp2096
a(I8
I-64
tp2097
a(I8
I-63
tp2098
a(I9
I-64
tp2099
a(I9
I-63
tp2100
a(I10
I-64
tp2101
a(I10
I-63
tp2102
a(I11
I-64
tp2103
a(I11
I-63
tp2104
a(I-7
I42
tp2105
a(I-7
I43
tp2106
a(I-6
I42
tp2107
a(I-6
I43
tp2108
a(I-5
I42
tp2109
a(I-5
I43
tp2110
a(I-4
I42
tp2111
a(I-4
I43
tp2112
a(I-3
I42
tp2113
a(I-3
I43
tp2114
a(I-2
I42
tp2115
a(I-2
I43
tp2116
a(I-1
I42
tp2117
a(I-1
I43
tp2118
a(I0
I42
tp2119
a(I0
I43
tp2120
a(I1
I42
tp2121
a(I1
I43
tp2122
a(I2
I42
tp2123
a(I2
I43
tp2124
a(I3
I42
tp2125
a(I3
I43
tp2126
a(I4
I42
tp2127
a(I4
I43
tp2128
a(I5
I42
tp2129
a(I5
I43
tp2130
a(I6
I42
tp2131
a(I6
I43
tp2132
a(I7
I42
tp2133
a(I7
I43
tp2134
a(I8
I42
tp2135
a(I8
I43
tp2136
a(I9
I42
tp2137
a(I9
I43
tp2138
a(I10
I42
tp2139
a(I10
I43
tp2140
a(I9
I-64
tp2141
a(I9
I-63
tp2142
a(I10
I-64
tp2143
a(I10
I-63
tp2144
a(I11
I-64
tp2145
a(I11
I-63
tp2146
a(I12
I-64
tp2147
a(I12
I-63
tp2148
a(I13
I-64
tp2149
a(I13
I-63
tp2150
a(I14
I-64
tp2151
a(I14
I-63
tp2152
a(I15
I-64
tp2153
a(I15
I-63
tp2154
a(I16
I-64
tp2155
a(I16
I-63
tp2156
a(I0
I-68
tp2157
a(I0
I-67
tp2158
a(I1
I-68
tp2159
a(I1
I-67
tp2160
a(I2
I-68
tp2161
a(I2
I-67
tp2162
a(I3
I-68
tp2163
a(I3
I-67
tp2164
a(I4
I-68
tp2165
a(I4
I-67
tp2166
a(I5
I-68
tp2167
a(I5
I-67
tp2168
a(I6
I-68
tp2169
a(I6
I-67
tp2170
a(I7
I-68
tp2171
a(I7
I-67
tp2172
a(I0
I-68
tp2173
a(I1
I-68
tp2174
a(I0
I-67
tp2175
a(I1
I-67
tp2176
a(I0
I-66
tp2177
a(I1
I-66
tp2178
a(I0
I-65
tp2179
a(I1
I-65
tp2180
a(I0
I-64
tp2181
a(I1
I-64
tp2182
a(I0
I-63
tp2183
a(I1
I-63
tp2184
a(I0
I-62
tp2185
a(I1
I-62
tp2186
a(I0
I-61
tp2187
a(I1
I-61
tp2188
a(I0
I-60
tp2189
a(I1
I-60
tp2190
a(I0
I-59
tp2191
a(I1
I-59
tp2192
a(I0
I-58
tp2193
a(I1
I-58
tp2194
a(I0
I-57
tp2195
a(I1
I-57
tp2196
a(I-5
I-59
tp2197
a(I-5
I-58
tp2198
a(I-4
I-59
tp2199
a(I-4
I-58
tp2200
a(I-3
I-59
tp2201
a(I-3
I-58
tp2202
a(I-2
I-59
tp2203
a(I-2
I-58
tp2204
a(I-1
I-59
tp2205
a(I-1
I-58
tp2206
a(I0
I-59
tp2207
a(I0
I-58
tp2208
a(I1
I-59
tp2209
a(I1
I-58
tp2210
a(I2
I-59
tp2211
a(I2
I-58
tp2212
a(I-4
I-66
tp2213
a(I-4
I-65
tp2214
a(I-3
I-66
tp2215
a(I-3
I-65
tp2216
a(I-2
I-66
tp2217
a(I-2
I-65
tp2218
a(I-1
I-66
tp2219
a(I-1
I-65
tp2220
a(I0
I-59
tp2221
a(I1
I-59
tp2222
a(I0
I-58
tp2223
a(I1
I-58
tp2224
a(I0
I-57
tp2225
a(I1
I-57
tp2226
a(I0
I-56
tp2227
a(I1
I-56
tp2228
a(I0
I-55
tp2229
a(I1
I-55
tp2230
a(I0
I-54
tp2231
a(I1
I-54
tp2232
a(I0
I-53
tp2233
a(I1
I-53
tp2234
a(I0
I-52
tp2235
a(I1
I-52
tp2236
a(I0
I-51
tp2237
a(I1
I-51
tp2238
a(I0
I-50
tp2239
a(I1
I-50
tp2240
a(I0
I-49
tp2241
a(I1
I-49
tp2242
a(I0
I-48
tp2243
a(I1
I-48
tp2244
a(I0
I-47
tp2245
a(I1
I-47
tp2246
a(I0
I-46
tp2247
a(I1
I-46
tp2248
a(I0
I-45
tp2249
a(I1
I-45
tp2250
a(I0
I-44
tp2251
a(I1
I-44
tp2252
a(I0
I-43
tp2253
a(I1
I-43
tp2254
a(I0
I-42
tp2255
a(I1
I-42
tp2256
a(I0
I-41
tp2257
a(I1
I-41
tp2258
a(I0
I-40
tp2259
a(I1
I-40
tp2260
a(I-84
I40
tp2261
a(I-83
I40
tp2262
a(I-84
I41
tp2263
a(I-83
I41
tp2264
a(I-84
I42
tp2265
a(I-83
I42
tp2266
a(I-84
I43
tp2267
a(I-83
I43
tp2268
a(I-84
I44
tp2269
a(I-83
I44
tp2270
a(I-84
I45
tp2271
a(I-83
I45
tp2272
a(I-84
I46
tp2273
a(I-83
I46
tp2274
a(I-84
I47
tp2275
a(I-83
I47
tp2276
a(I-84
I48
tp2277
a(I-83
I48
tp2278
a(I-84
I49
tp2279
a(I-83
I49
tp2280
a(I-84
I50
tp2281
a(I-83
I50
tp2282
a(I-84
I51
tp2283
a(I-83
I51
tp2284
a(I-84
I52
tp2285
a(I-83
I52
tp2286
a(I-84
I53
tp2287
a(I-83
I53
tp2288
a(I-84
I54
tp2289
a(I-83
I54
tp2290
a(I-84
I55
tp2291
a(I-83
I55
tp2292
a(I-84
I56
tp2293
a(I-83
I56
tp2294
a(I-84
I57
tp2295
a(I-83
I57
tp2296
a(I-84
I58
tp2297
a(I-83
I58
tp2298
a(I-84
I59
tp2299
a(I-83
I59
tp2300
a(I-84
I60
tp2301
a(I-83
I60
tp2302
a(I-84
I61
tp2303
a(I-83
I61
tp2304
a(I-84
I62
tp2305
a(I-83
I62
tp2306
a(I-84
I63
tp2307
a(I-83
I63
tp2308
a(I-84
I64
tp2309
a(I-83
I64
tp2310
a(I-84
I65
tp2311
a(I-83
I65
tp2312
a(I-84
I66
tp2313
a(I-83
I66
tp2314
a(I-84
I67
tp2315
a(I-83
I67
tp2316
a(I-84
I68
tp2317
a(I-83
I68
tp2318
a(I-84
I69
tp2319
a(I-83
I69
tp2320
a(I19
I-68
tp2321
a(I20
I-68
tp2322
a(I19
I-67
tp2323
a(I20
I-67
tp2324
a(I19
I-66
tp2325
a(I20
I-66
tp2326
a(I19
I-65
tp2327
a(I20
I-65
tp2328
a(I19
I-64
tp2329
a(I20
I-64
tp2330
a(I19
I-63
tp2331
a(I20
I-63
tp2332
a(I19
I-62
tp2333
a(I20
I-62
tp2334
a(I19
I-61
tp2335
a(I20
I-61
tp2336
a(I19
I-60
tp2337
a(I20
I-60
tp2338
a(I19
I-59
tp2339
a(I20
I-59
tp2340
a(I19
I-58
tp2341
a(I20
I-58
tp2342
a(I19
I-57
tp2343
a(I20
I-57
tp2344
a(I19
I-56
tp2345
a(I20
I-56
tp2346
a(I19
I-55
tp2347
a(I20
I-55
tp2348
a(I19
I-54
tp2349
a(I20
I-54
tp2350
a(I19
I-53
tp2351
a(I20
I-53
tp2352
a(I19
I-52
tp2353
a(I20
I-52
tp2354
a(I19
I-51
tp2355
a(I20
I-51
tp2356
a(I19
I-50
tp2357
a(I20
I-50
tp2358
a(I19
I-49
tp2359
a(I20
I-49
tp2360
a(I19
I-48
tp2361
a(I20
I-48
tp2362
a(I19
I-47
tp2363
a(I20
I-47
tp2364
a(I19
I-46
tp2365
a(I20
I-46
tp2366
a(I19
I-45
tp2367
a(I20
I-45
tp2368
a(I19
I-44
tp2369
a(I20
I-44
tp2370
a(I19
I-43
tp2371
a(I20
I-43
tp2372
a(I19
I-42
tp2373
a(I20
I-42
tp2374
a(I19
I-41
tp2375
a(I20
I-41
tp2376
a(I19
I-40
tp2377
a(I20
I-40
tp2378
a(I19
I-39
tp2379
a(I20
I-39
tp2380
a(I13
I-68
tp2381
a(I13
I-67
tp2382
a(I14
I-68
tp2383
a(I14
I-67
tp2384
a(I15
I-68
tp2385
a(I15
I-67
tp2386
a(I16
I-68
tp2387
a(I16
I-67
tp2388
a(I17
I-68
tp2389
a(I17
I-67
tp2390
a(I18
I-68
tp2391
a(I18
I-67
tp2392
a(I19
I-68
tp2393
a(I19
I-67
tp2394
a(I20
I-68
tp2395
a(I20
I-67
tp2396
a(I11
I41
tp2397
a(I11
I42
tp2398
a(I12
I41
tp2399
a(I12
I42
tp2400
a(I13
I41
tp2401
a(I13
I42
tp2402
a(I14
I41
tp2403
a(I14
I42
tp2404
a(I15
I41
tp2405
a(I15
I42
tp2406
a(I16
I41
tp2407
a(I16
I42
tp2408
a(I17
I41
tp2409
a(I17
I42
tp2410
a(I18
I41
tp2411
a(I18
I42
tp2412
a(I19
I41
tp2413
a(I19
I42
tp2414
a(I20
I41
tp2415
a(I20
I42
tp2416
a(I21
I41
tp2417
a(I21
I42
tp2418
a(I22
I41
tp2419
a(I22
I42
tp2420
a(I23
I41
tp2421
a(I23
I42
tp2422
a(I24
I41
tp2423
a(I24
I42
tp2424
a(I25
I41
tp2425
a(I25
I42
tp2426
a(I26
I41
tp2427
a(I26
I42
tp2428
a(I27
I41
tp2429
a(I27
I42
tp2430
a(I28
I41
tp2431
a(I28
I42
tp2432
a(I29
I41
tp2433
a(I29
I42
tp2434
a(I30
I41
tp2435
a(I30
I42
tp2436
a(I31
I41
tp2437
a(I31
I42
tp2438
a(I32
I41
tp2439
a(I32
I42
tp2440
a(I33
I41
tp2441
a(I33
I42
tp2442
a(I34
I41
tp2443
a(I34
I42
tp2444
a(I35
I41
tp2445
a(I35
I42
tp2446
a(I36
I41
tp2447
a(I36
I42
tp2448
a(I37
I41
tp2449
a(I37
I42
tp2450
a(I38
I41
tp2451
a(I38
I42
tp2452
a(I39
I41
tp2453
a(I39
I42
tp2454
a(I40
I41
tp2455
a(I40
I42
tp2456
a(I41
I41
tp2457
a(I41
I42
tp2458
a(I42
I41
tp2459
a(I42
I42
tp2460
a(I43
I41
tp2461
a(I43
I42
tp2462
a(I44
I41
tp2463
a(I44
I42
tp2464
a(I27
I-20
tp2465
a(I27
I-19
tp2466
a(I28
I-20
tp2467
a(I28
I-19
tp2468
a(I29
I-20
tp2469
a(I29
I-19
tp2470
a(I30
I-20
tp2471
a(I30
I-19
tp2472
a(I31
I-20
tp2473
a(I31
I-19
tp2474
a(I32
I-20
tp2475
a(I32
I-19
tp2476
a(I33
I-20
tp2477
a(I33
I-19
tp2478
a(I34
I-20
tp2479
a(I34
I-19
tp2480
a(I35
I-20
tp2481
a(I35
I-19
tp2482
a(I36
I-20
tp2483
a(I36
I-19
tp2484
a(I35
I-70
tp2485
a(I36
I-70
tp2486
a(I35
I-69
tp2487
a(I36
I-69
tp2488
a(I35
I-68
tp2489
a(I36
I-68
tp2490
a(I35
I-67
tp2491
a(I36
I-67
tp2492
a(I35
I-66
tp2493
a(I36
I-66
tp2494
a(I35
I-65
tp2495
a(I36
I-65
tp2496
a(I35
I-64
tp2497
a(I36
I-64
tp2498
a(I35
I-63
tp2499
a(I36
I-63
tp2500
a(I35
I-62
tp2501
a(I36
I-62
tp2502
a(I35
I-61
tp2503
a(I36
I-61
tp2504
a(I35
I-60
tp2505
a(I36
I-60
tp2506
a(I35
I-59
tp2507
a(I36
I-59
tp2508
a(I35
I-58
tp2509
a(I36
I-58
tp2510
a(I35
I-57
tp2511
a(I36
I-57
tp2512
a(I35
I-56
tp2513
a(I36
I-56
tp2514
a(I35
I-55
tp2515
a(I36
I-55
tp2516
a(I35
I-54
tp2517
a(I36
I-54
tp2518
a(I35
I-53
tp2519
a(I36
I-53
tp2520
a(I35
I-52
tp2521
a(I36
I-52
tp2522
a(I35
I-51
tp2523
a(I36
I-51
tp2524
a(I35
I-50
tp2525
a(I36
I-50
tp2526
a(I35
I-49
tp2527
a(I36
I-49
tp2528
a(I35
I-48
tp2529
a(I36
I-48
tp2530
a(I35
I-47
tp2531
a(I36
I-47
tp2532
a(I35
I-46
tp2533
a(I36
I-46
tp2534
a(I35
I-45
tp2535
a(I36
I-45
tp2536
a(I35
I-44
tp2537
a(I36
I-44
tp2538
a(I35
I-43
tp2539
a(I36
I-43
tp2540
a(I35
I-42
tp2541
a(I36
I-42
tp2542
a(I35
I-41
tp2543
a(I36
I-41
tp2544
a(I35
I-40
tp2545
a(I36
I-40
tp2546
a(I35
I-39
tp2547
a(I36
I-39
tp2548
a(I35
I-38
tp2549
a(I36
I-38
tp2550
a(I35
I-37
tp2551
a(I36
I-37
tp2552
a(I35
I-36
tp2553
a(I36
I-36
tp2554
a(I35
I-35
tp2555
a(I36
I-35
tp2556
a(I35
I-34
tp2557
a(I36
I-34
tp2558
a(I35
I-33
tp2559
a(I36
I-33
tp2560
a(I35
I-32
tp2561
a(I36
I-32
tp2562
a(I35
I-31
tp2563
a(I36
I-31
tp2564
a(I35
I-30
tp2565
a(I36
I-30
tp2566
a(I35
I-29
tp2567
a(I36
I-29
tp2568
a(I35
I-28
tp2569
a(I36
I-28
tp2570
a(I35
I-27
tp2571
a(I36
I-27
tp2572
a(I35
I-26
tp2573
a(I36
I-26
tp2574
a(I35
I-25
tp2575
a(I36
I-25
tp2576
a(I35
I-24
tp2577
a(I36
I-24
tp2578
a(I35
I-23
tp2579
a(I36
I-23
tp2580
a(I35
I-22
tp2581
a(I36
I-22
tp2582
a(I35
I-21
tp2583
a(I36
I-21
tp2584
a(I35
I-20
tp2585
a(I36
I-20
tp2586
a(I35
I-19
tp2587
a(I36
I-19
tp2588
a(I27
I-70
tp2589
a(I27
I-69
tp2590
a(I28
I-70
tp2591
a(I28
I-69
tp2592
a(I29
I-70
tp2593
a(I29
I-69
tp2594
a(I30
I-70
tp2595
a(I30
I-69
tp2596
a(I31
I-70
tp2597
a(I31
I-69
tp2598
a(I32
I-70
tp2599
a(I32
I-69
tp2600
a(I33
I-70
tp2601
a(I33
I-69
tp2602
a(I34
I-70
tp2603
a(I34
I-69
tp2604
a(I35
I-70
tp2605
a(I35
I-69
tp2606
a(I36
I-70
tp2607
a(I36
I-69
tp2608
a(I27
I-71
tp2609
a(I28
I-71
tp2610
a(I27
I-70
tp2611
a(I28
I-70
tp2612
a(I27
I-69
tp2613
a(I28
I-69
tp2614
a(I27
I-68
tp2615
a(I28
I-68
tp2616
a(I28
I-68
tp2617
a(I29
I-68
tp2618
a(I28
I-67
tp2619
a(I29
I-67
tp2620
a(I28
I-66
tp2621
a(I29
I-66
tp2622
a(I28
I-65
tp2623
a(I29
I-65
tp2624
a(I28
I-64
tp2625
a(I29
I-64
tp2626
a(I28
I-63
tp2627
a(I29
I-63
tp2628
a(I28
I-62
tp2629
a(I29
I-62
tp2630
a(I28
I-61
tp2631
a(I29
I-61
tp2632
a(I28
I-60
tp2633
a(I29
I-60
tp2634
a(I28
I-59
tp2635
a(I29
I-59
tp2636
a(I28
I-58
tp2637
a(I29
I-58
tp2638
a(I28
I-57
tp2639
a(I29
I-57
tp2640
a(I28
I-56
tp2641
a(I29
I-56
tp2642
a(I28
I-55
tp2643
a(I29
I-55
tp2644
a(I28
I-54
tp2645
a(I29
I-54
tp2646
a(I28
I-53
tp2647
a(I29
I-53
tp2648
a(I28
I-52
tp2649
a(I29
I-52
tp2650
a(I28
I-51
tp2651
a(I29
I-51
tp2652
a(I28
I-50
tp2653
a(I29
I-50
tp2654
a(I28
I-49
tp2655
a(I29
I-49
tp2656
a(I28
I-48
tp2657
a(I29
I-48
tp2658
a(I28
I-47
tp2659
a(I29
I-47
tp2660
a(I28
I-46
tp2661
a(I29
I-46
tp2662
a(I28
I-45
tp2663
a(I29
I-45
tp2664
a(I28
I-44
tp2665
a(I29
I-44
tp2666
a(I28
I-43
tp2667
a(I29
I-43
tp2668
a(I28
I-42
tp2669
a(I29
I-42
tp2670
a(I28
I-41
tp2671
a(I29
I-41
tp2672
a(I28
I-40
tp2673
a(I29
I-40
tp2674
a(I28
I-39
tp2675
a(I29
I-39
tp2676
a(I28
I-38
tp2677
a(I29
I-38
tp2678
a(I28
I-37
tp2679
a(I29
I-37
tp2680
a(I28
I-36
tp2681
a(I29
I-36
tp2682
a(I28
I-35
tp2683
a(I29
I-35
tp2684
a(I28
I-34
tp2685
a(I29
I-34
tp2686
a(I28
I-33
tp2687
a(I29
I-33
tp2688
a(I28
I-32
tp2689
a(I29
I-32
tp2690
a(I28
I-31
tp2691
a(I29
I-31
tp2692
a(I28
I-30
tp2693
a(I29
I-30
tp2694
a(I28
I-29
tp2695
a(I29
I-29
tp2696
a(I28
I-28
tp2697
a(I29
I-28
tp2698
a(I28
I-27
tp2699
a(I29
I-27
tp2700
a(I28
I-26
tp2701
a(I29
I-26
tp2702
a(I28
I-25
tp2703
a(I29
I-25
tp2704
a(I28
I-24
tp2705
a(I29
I-24
tp2706
a(I28
I-23
tp2707
a(I29
I-23
tp2708
a(I28
I-22
tp2709
a(I29
I-22
tp2710
a(I28
I-21
tp2711
a(I29
I-21
tp2712
a(I28
I-20
tp2713
a(I29
I-20
tp2714
a(I28
I-19
tp2715
a(I29
I-19
tp2716
a(I27
I-55
tp2717
a(I27
I-54
tp2718
a(I28
I-55
tp2719
a(I28
I-54
tp2720
a(I29
I-55
tp2721
a(I29
I-54
tp2722
a(I30
I-55
tp2723
a(I30
I-54
tp2724
a(I31
I-55
tp2725
a(I31
I-54
tp2726
a(I32
I-55
tp2727
a(I32
I-54
tp2728
a(I33
I-55
tp2729
a(I33
I-54
tp2730
a(I34
I-55
tp2731
a(I34
I-54
tp2732
a(I35
I-55
tp2733
a(I35
I-54
tp2734
a(I36
I-55
tp2735
a(I36
I-54
tp2736
a(I27
I-48
tp2737
a(I27
I-47
tp2738
a(I28
I-48
tp2739
a(I28
I-47
tp2740
a(I29
I-48
tp2741
a(I29
I-47
tp2742
a(I30
I-48
tp2743
a(I30
I-47
tp2744
a(I31
I-48
tp2745
a(I31
I-47
tp2746
a(I32
I-48
tp2747
a(I32
I-47
tp2748
a(I33
I-48
tp2749
a(I33
I-47
tp2750
a(I34
I-48
tp2751
a(I34
I-47
tp2752
a(I35
I-48
tp2753
a(I35
I-47
tp2754
a(I36
I-48
tp2755
a(I36
I-47
tp2756
a(I27
I-43
tp2757
a(I27
I-42
tp2758
a(I28
I-43
tp2759
a(I28
I-42
tp2760
a(I29
I-43
tp2761
a(I29
I-42
tp2762
a(I30
I-43
tp2763
a(I30
I-42
tp2764
a(I31
I-43
tp2765
a(I31
I-42
tp2766
a(I32
I-43
tp2767
a(I32
I-42
tp2768
a(I33
I-43
tp2769
a(I33
I-42
tp2770
a(I34
I-43
tp2771
a(I34
I-42
tp2772
a(I35
I-43
tp2773
a(I35
I-42
tp2774
a(I36
I-43
tp2775
a(I36
I-42
tp2776
a(I27
I-36
tp2777
a(I27
I-35
tp2778
a(I28
I-36
tp2779
a(I28
I-35
tp2780
a(I29
I-36
tp2781
a(I29
I-35
tp2782
a(I30
I-36
tp2783
a(I30
I-35
tp2784
a(I31
I-36
tp2785
a(I31
I-35
tp2786
a(I32
I-36
tp2787
a(I32
I-35
tp2788
a(I33
I-36
tp2789
a(I33
I-35
tp2790
a(I34
I-36
tp2791
a(I34
I-35
tp2792
a(I35
I-36
tp2793
a(I35
I-35
tp2794
a(I36
I-36
tp2795
a(I36
I-35
tp2796
a(I27
I-30
tp2797
a(I27
I-29
tp2798
a(I28
I-30
tp2799
a(I28
I-29
tp2800
a(I29
I-30
tp2801
a(I29
I-29
tp2802
a(I30
I-30
tp2803
a(I30
I-29
tp2804
a(I31
I-30
tp2805
a(I31
I-29
tp2806
a(I32
I-30
tp2807
a(I32
I-29
tp2808
a(I33
I-30
tp2809
a(I33
I-29
tp2810
a(I34
I-30
tp2811
a(I34
I-29
tp2812
a(I35
I-30
tp2813
a(I35
I-29
tp2814
a(I36
I-30
tp2815
a(I36
I-29
tp2816
a(I40
I-22
tp2817
a(I40
I-21
tp2818
a(I41
I-22
tp2819
a(I41
I-21
tp2820
a(I42
I-22
tp2821
a(I42
I-21
tp2822
a(I43
I-22
tp2823
a(I43
I-21
tp2824
a(I44
I-22
tp2825
a(I44
I-21
tp2826
a(I45
I-22
tp2827
a(I45
I-21
tp2828
a(I46
I-22
tp2829
a(I46
I-21
tp2830
a(I47
I-22
tp2831
a(I47
I-21
tp2832
a(I48
I-22
tp2833
a(I48
I-21
tp2834
a(I49
I-22
tp2835
a(I49
I-21
tp2836
a(I50
I-22
tp2837
a(I50
I-21
tp2838
a(I51
I-22
tp2839
a(I51
I-21
tp2840
a(I52
I-22
tp2841
a(I52
I-21
tp2842
a(I53
I-22
tp2843
a(I53
I-21
tp2844
a(I54
I-22
tp2845
a(I54
I-21
tp2846
a(I55
I-22
tp2847
a(I55
I-21
tp2848
a(I56
I-22
tp2849
a(I56
I-21
tp2850
a(I57
I-22
tp2851
a(I57
I-21
tp2852
a(I58
I-22
tp2853
a(I58
I-21
tp2854
a(I59
I-22
tp2855
a(I59
I-21
tp2856
a(I60
I-22
tp2857
a(I60
I-21
tp2858
a(I61
I-22
tp2859
a(I61
I-21
tp2860
a(I62
I-22
tp2861
a(I62
I-21
tp2862
a(I63
I-22
tp2863
a(I63
I-21
tp2864
a(I64
I-22
tp2865
a(I64
I-21
tp2866
a(I65
I-22
tp2867
a(I65
I-21
tp2868
a(I66
I-22
tp2869
a(I66
I-21
tp2870
a(I67
I-22
tp2871
a(I67
I-21
tp2872
a(I68
I-22
tp2873
a(I68
I-21
tp2874
a(I69
I-22
tp2875
a(I69
I-21
tp2876
a(I73
I-22
tp2877
a(I73
I-21
tp2878
a(I74
I-22
tp2879
a(I74
I-21
tp2880
a(I75
I-22
tp2881
a(I75
I-21
tp2882
a(I76
I-22
tp2883
a(I76
I-21
tp2884
a(I77
I-22
tp2885
a(I77
I-21
tp2886
a(I78
I-22
tp2887
a(I78
I-21
tp2888
a(I79
I-22
tp2889
a(I79
I-21
tp2890
a(I80
I-22
tp2891
a(I80
I-21
tp2892
a(I81
I-22
tp2893
a(I81
I-21
tp2894
a(I82
I-22
tp2895
a(I82
I-21
tp2896
a(I83
I-22
tp2897
a(I83
I-21
tp2898
a(I84
I-22
tp2899
a(I84
I-21
tp2900
a(I83
I-75
tp2901
a(I84
I-75
tp2902
a(I83
I-74
tp2903
a(I84
I-74
tp2904
a(I83
I-73
tp2905
a(I84
I-73
tp2906
a(I83
I-72
tp2907
a(I84
I-72
tp2908
a(I83
I-71
tp2909
a(I84
I-71
tp2910
a(I83
I-70
tp2911
a(I84
I-70
tp2912
a(I83
I-69
tp2913
a(I84
I-69
tp2914
a(I83
I-68
tp2915
a(I84
I-68
tp2916
a(I83
I-67
tp2917
a(I84
I-67
tp2918
a(I83
I-66
tp2919
a(I84
I-66
tp2920
a(I83
I-65
tp2921
a(I84
I-65
tp2922
a(I83
I-64
tp2923
a(I84
I-64
tp2924
a(I83
I-63
tp2925
a(I84
I-63
tp2926
a(I83
I-62
tp2927
a(I84
I-62
tp2928
a(I83
I-61
tp2929
a(I84
I-61
tp2930
a(I83
I-60
tp2931
a(I84
I-60
tp2932
a(I83
I-59
tp2933
a(I84
I-59
tp2934
a(I83
I-58
tp2935
a(I84
I-58
tp2936
a(I83
I-57
tp2937
a(I84
I-57
tp2938
a(I83
I-56
tp2939
a(I84
I-56
tp2940
a(I83
I-55
tp2941
a(I84
I-55
tp2942
a(I83
I-54
tp2943
a(I84
I-54
tp2944
a(I83
I-53
tp2945
a(I84
I-53
tp2946
a(I83
I-52
tp2947
a(I84
I-52
tp2948
a(I83
I-51
tp2949
a(I84
I-51
tp2950
a(I83
I-50
tp2951
a(I84
I-50
tp2952
a(I83
I-49
tp2953
a(I84
I-49
tp2954
a(I83
I-48
tp2955
a(I84
I-48
tp2956
a(I83
I-47
tp2957
a(I84
I-47
tp2958
a(I83
I-46
tp2959
a(I84
I-46
tp2960
a(I83
I-45
tp2961
a(I84
I-45
tp2962
a(I83
I-44
tp2963
a(I84
I-44
tp2964
a(I83
I-43
tp2965
a(I84
I-43
tp2966
a(I83
I-42
tp2967
a(I84
I-42
tp2968
a(I83
I-41
tp2969
a(I84
I-41
tp2970
a(I83
I-40
tp2971
a(I84
I-40
tp2972
a(I83
I-39
tp2973
a(I84
I-39
tp2974
a(I83
I-38
tp2975
a(I84
I-38
tp2976
a(I83
I-37
tp2977
a(I84
I-37
tp2978
a(I83
I-36
tp2979
a(I84
I-36
tp2980
a(I83
I-35
tp2981
a(I84
I-35
tp2982
a(I83
I-34
tp2983
a(I84
I-34
tp2984
a(I83
I-33
tp2985
a(I84
I-33
tp2986
a(I83
I-32
tp2987
a(I84
I-32
tp2988
a(I83
I-31
tp2989
a(I84
I-31
tp2990
a(I83
I-30
tp2991
a(I84
I-30
tp2992
a(I83
I-29
tp2993
a(I84
I-29
tp2994
a(I83
I-28
tp2995
a(I84
I-28
tp2996
a(I83
I-27
tp2997
a(I84
I-27
tp2998
a(I83
I-26
tp2999
a(I84
I-26
tp3000
a(I83
I-25
tp3001
a(I84
I-25
tp3002
a(I83
I-24
tp3003
a(I84
I-24
tp3004
a(I83
I-23
tp3005
a(I84
I-23
tp3006
a(I83
I-22
tp3007
a(I84
I-22
tp3008
a(I83
I-21
tp3009
a(I84
I-21
tp3010
a(I83
I-20
tp3011
a(I84
I-20
tp3012
a(I39
I-66
tp3013
a(I39
I-65
tp3014
a(I40
I-66
tp3015
a(I40
I-65
tp3016
a(I41
I-66
tp3017
a(I41
I-65
tp3018
a(I42
I-66
tp3019
a(I42
I-65
tp3020
a(I43
I-66
tp3021
a(I43
I-65
tp3022
a(I44
I-66
tp3023
a(I44
I-65
tp3024
a(I45
I-66
tp3025
a(I45
I-65
tp3026
a(I46
I-66
tp3027
a(I46
I-65
tp3028
a(I47
I-66
tp3029
a(I47
I-65
tp3030
a(I48
I-66
tp3031
a(I48
I-65
tp3032
a(I47
I-68
tp3033
a(I47
I-67
tp3034
a(I48
I-68
tp3035
a(I48
I-67
tp3036
a(I49
I-68
tp3037
a(I49
I-67
tp3038
a(I50
I-68
tp3039
a(I50
I-67
tp3040
a(I51
I-68
tp3041
a(I51
I-67
tp3042
a(I52
I-68
tp3043
a(I52
I-67
tp3044
a(I53
I-68
tp3045
a(I53
I-67
tp3046
a(I54
I-68
tp3047
a(I54
I-67
tp3048
a(I53
I-70
tp3049
a(I53
I-69
tp3050
a(I54
I-70
tp3051
a(I54
I-69
tp3052
a(I55
I-70
tp3053
a(I55
I-69
tp3054
a(I56
I-70
tp3055
a(I56
I-69
tp3056
a(I57
I-70
tp3057
a(I57
I-69
tp3058
a(I58
I-70
tp3059
a(I58
I-69
tp3060
a(I59
I-70
tp3061
a(I59
I-69
tp3062
a(I60
I-70
tp3063
a(I60
I-69
tp3064
a(I59
I-69
tp3065
a(I59
I-68
tp3066
a(I60
I-69
tp3067
a(I60
I-68
tp3068
a(I61
I-69
tp3069
a(I61
I-68
tp3070
a(I62
I-69
tp3071
a(I62
I-68
tp3072
a(I63
I-69
tp3073
a(I63
I-68
tp3074
a(I64
I-69
tp3075
a(I64
I-68
tp3076
a(I65
I-69
tp3077
a(I65
I-68
tp3078
a(I66
I-69
tp3079
a(I66
I-68
tp3080
a(I66
I-70
tp3081
a(I66
I-69
tp3082
a(I67
I-70
tp3083
a(I67
I-69
tp3084
a(I68
I-70
tp3085
a(I68
I-69
tp3086
a(I69
I-70
tp3087
a(I69
I-69
tp3088
a(I70
I-70
tp3089
a(I70
I-69
tp3090
a(I71
I-70
tp3091
a(I71
I-69
tp3092
a(I72
I-70
tp3093
a(I72
I-69
tp3094
a(I73
I-70
tp3095
a(I73
I-69
tp3096
a(I71
I-70
tp3097
a(I71
I-69
tp3098
a(I72
I-70
tp3099
a(I72
I-69
tp3100
a(I73
I-70
tp3101
a(I73
I-69
tp3102
a(I74
I-70
tp3103
a(I74
I-69
tp3104
a(I75
I-70
tp3105
a(I75
I-69
tp3106
a(I76
I-70
tp3107
a(I76
I-69
tp3108
a(I77
I-70
tp3109
a(I77
I-69
tp3110
a(I78
I-70
tp3111
a(I78
I-69
tp3112
a(I79
I-70
tp3113
a(I79
I-69
tp3114
a(I80
I-70
tp3115
a(I80
I-69
tp3116
a(I40
I-31
tp3117
a(I40
I-30
tp3118
a(I41
I-31
tp3119
a(I41
I-30
tp3120
a(I42
I-31
tp3121
a(I42
I-30
tp3122
a(I43
I-31
tp3123
a(I43
I-30
tp3124
a(I44
I-31
tp3125
a(I44
I-30
tp3126
a(I45
I-31
tp3127
a(I45
I-30
tp3128
a(I46
I-31
tp3129
a(I46
I-30
tp3130
a(I47
I-31
tp3131
a(I47
I-30
tp3132
a(I46
I-28
tp3133
a(I46
I-27
tp3134
a(I47
I-28
tp3135
a(I47
I-27
tp3136
a(I48
I-28
tp3137
a(I48
I-27
tp3138
a(I49
I-28
tp3139
a(I49
I-27
tp3140
a(I50
I-28
tp3141
a(I50
I-27
tp3142
a(I51
I-28
tp3143
a(I51
I-27
tp3144
a(I52
I-28
tp3145
a(I52
I-27
tp3146
a(I53
I-28
tp3147
a(I53
I-27
tp3148
a(I43
I41
tp3149
a(I44
I41
tp3150
a(I43
I42
tp3151
a(I44
I42
tp3152
a(I43
I43
tp3153
a(I44
I43
tp3154
a(I43
I44
tp3155
a(I44
I44
tp3156
a(I43
I45
tp3157
a(I44
I45
tp3158
a(I43
I46
tp3159
a(I44
I46
tp3160
a(I43
I47
tp3161
a(I44
I47
tp3162
a(I43
I48
tp3163
a(I44
I48
tp3164
a(I43
I49
tp3165
a(I44
I49
tp3166
a(I43
I50
tp3167
a(I44
I50
tp3168
a(I43
I51
tp3169
a(I44
I51
tp3170
a(I43
I52
tp3171
a(I44
I52
tp3172
a(I43
I53
tp3173
a(I44
I53
tp3174
a(I43
I54
tp3175
a(I44
I54
tp3176
a(I43
I55
tp3177
a(I44
I55
tp3178
a(I43
I56
tp3179
a(I44
I56
tp3180
a(I43
I57
tp3181
a(I44
I57
tp3182
a(I43
I58
tp3183
a(I44
I58
tp3184
a(I43
I59
tp3185
a(I44
I59
tp3186
a(I43
I60
tp3187
a(I44
I60
tp3188
a(I43
I61
tp3189
a(I44
I61
tp3190
a(I43
I62
tp3191
a(I44
I62
tp3192
a(I43
I63
tp3193
a(I44
I63
tp3194
a(I43
I64
tp3195
a(I44
I64
tp3196
a(I43
I65
tp3197
a(I44
I65
tp3198
a(I43
I66
tp3199
a(I44
I66
tp3200
a(I43
I67
tp3201
a(I44
I67
tp3202
a(I43
I68
tp3203
a(I44
I68
tp3204
a(I43
I69
tp3205
a(I44
I69
tp3206
a(I43
I70
tp3207
a(I44
I70
tp3208
a(I53
I-26
tp3209
a(I53
I-25
tp3210
a(I54
I-26
tp3211
a(I54
I-25
tp3212
a(I55
I-26
tp3213
a(I55
I-25
tp3214
a(I56
I-26
tp3215
a(I56
I-25
tp3216
a(I57
I-26
tp3217
a(I57
I-25
tp3218
a(I58
I-26
tp3219
a(I58
I-25
tp3220
a(I59
I-26
tp3221
a(I59
I-25
tp3222
a(I60
I-26
tp3223
a(I60
I-25
tp3224
a(I59
I-28
tp3225
a(I59
I-27
tp3226
a(I60
I-28
tp3227
a(I60
I-27
tp3228
a(I61
I-28
tp3229
a(I61
I-27
tp3230
a(I62
I-28
tp3231
a(I62
I-27
tp3232
a(I63
I-28
tp3233
a(I63
I-27
tp3234
a(I64
I-28
tp3235
a(I64
I-27
tp3236
a(I65
I-28
tp3237
a(I65
I-27
tp3238
a(I66
I-28
tp3239
a(I66
I-27
tp3240
a(I66
I-27
tp3241
a(I66
I-26
tp3242
a(I67
I-27
tp3243
a(I67
I-26
tp3244
a(I68
I-27
tp3245
a(I68
I-26
tp3246
a(I69
I-27
tp3247
a(I69
I-26
tp3248
a(I70
I-27
tp3249
a(I70
I-26
tp3250
a(I71
I-27
tp3251
a(I71
I-26
tp3252
a(I72
I-27
tp3253
a(I72
I-26
tp3254
a(I73
I-27
tp3255
a(I73
I-26
tp3256
a(I71
I-27
tp3257
a(I71
I-26
tp3258
a(I72
I-27
tp3259
a(I72
I-26
tp3260
a(I73
I-27
tp3261
a(I73
I-26
tp3262
a(I74
I-27
tp3263
a(I74
I-26
tp3264
a(I75
I-27
tp3265
a(I75
I-26
tp3266
a(I76
I-27
tp3267
a(I76
I-26
tp3268
a(I77
I-27
tp3269
a(I77
I-26
tp3270
a(I78
I-27
tp3271
a(I78
I-26
tp3272
a(I79
I-27
tp3273
a(I79
I-26
tp3274
a(I80
I-27
tp3275
a(I80
I-26
tp3276
a(I19
I-42
tp3277
a(I20
I-42
tp3278
a(I19
I-41
tp3279
a(I20
I-41
tp3280
a(I19
I-40
tp3281
a(I20
I-40
tp3282
a(I19
I-39
tp3283
a(I20
I-39
tp3284
a(I19
I-38
tp3285
a(I20
I-38
tp3286
a(I19
I-37
tp3287
a(I20
I-37
tp3288
a(I19
I-36
tp3289
a(I20
I-36
tp3290
a(I19
I-35
tp3291
a(I20
I-35
tp3292
a(I19
I-34
tp3293
a(I20
I-34
tp3294
a(I19
I-33
tp3295
a(I20
I-33
tp3296
a(I19
I-32
tp3297
a(I20
I-32
tp3298
a(I19
I-31
tp3299
a(I20
I-31
tp3300
a(I19
I-30
tp3301
a(I20
I-30
tp3302
a(I19
I-29
tp3303
a(I20
I-29
tp3304
a(I19
I-28
tp3305
a(I20
I-28
tp3306
a(I19
I-27
tp3307
a(I20
I-27
tp3308
a(I19
I-26
tp3309
a(I20
I-26
tp3310
a(I19
I-25
tp3311
a(I20
I-25
tp3312
a(I19
I-24
tp3313
a(I20
I-24
tp3314
a(I19
I-23
tp3315
a(I20
I-23
tp3316
a(I19
I-22
tp3317
a(I20
I-22
tp3318
a(I19
I-21
tp3319
a(I20
I-21
tp3320
a(I10
I68
tp3321
a(I10
I69
tp3322
a(I11
I68
tp3323
a(I11
I69
tp3324
a(I12
I68
tp3325
a(I12
I69
tp3326
a(I13
I68
tp3327
a(I13
I69
tp3328
a(I14
I68
tp3329
a(I14
I69
tp3330
a(I15
I68
tp3331
a(I15
I69
tp3332
a(I16
I68
tp3333
a(I16
I69
tp3334
a(I17
I68
tp3335
a(I17
I69
tp3336
a(I18
I68
tp3337
a(I18
I69
tp3338
a(I19
I68
tp3339
a(I19
I69
tp3340
a(I20
I68
tp3341
a(I20
I69
tp3342
a(I21
I68
tp3343
a(I21
I69
tp3344
a(I22
I68
tp3345
a(I22
I69
tp3346
a(I23
I68
tp3347
a(I23
I69
tp3348
a(I24
I68
tp3349
a(I24
I69
tp3350
a(I25
I68
tp3351
a(I25
I69
tp3352
a(I26
I68
tp3353
a(I26
I69
tp3354
a(I27
I68
tp3355
a(I27
I69
tp3356
a(I28
I68
tp3357
a(I28
I69
tp3358
a(I29
I68
tp3359
a(I29
I69
tp3360
a(I30
I68
tp3361
a(I30
I69
tp3362
a(I31
I68
tp3363
a(I31
I69
tp3364
a(I32
I68
tp3365
a(I32
I69
tp3366
a(I33
I68
tp3367
a(I33
I69
tp3368
a(I34
I68
tp3369
a(I34
I69
tp3370
a(I35
I68
tp3371
a(I35
I69
tp3372
a(I36
I68
tp3373
a(I36
I69
tp3374
a(I37
I68
tp3375
a(I37
I69
tp3376
a(I38
I68
tp3377
a(I38
I69
tp3378
a(I39
I68
tp3379
a(I39
I69
tp3380
a(I40
I68
tp3381
a(I40
I69
tp3382
a(I41
I68
tp3383
a(I41
I69
tp3384
a(I42
I68
tp3385
a(I42
I69
tp3386
a(I43
I68
tp3387
a(I43
I69
tp3388
a(I44
I68
tp3389
a(I44
I69
tp3390
a(I45
I68
tp3391
a(I45
I69
tp3392
a(I15
I-22
tp3393
a(I15
I-21
tp3394
a(I16
I-22
tp3395
a(I16
I-21
tp3396
a(I17
I-22
tp3397
a(I17
I-21
tp3398
a(I18
I-22
tp3399
a(I18
I-21
tp3400
a(I19
I-22
tp3401
a(I19
I-21
tp3402
a(I20
I-22
tp3403
a(I20
I-21
tp3404
a(I16
I-19
tp3405
a(I17
I-19
tp3406
a(I16
I-18
tp3407
a(I17
I-18
tp3408
a(I16
I-17
tp3409
a(I17
I-17
tp3410
a(I16
I-16
tp3411
a(I17
I-16
tp3412
a(I16
I-15
tp3413
a(I17
I-15
tp3414
a(I16
I-14
tp3415
a(I17
I-14
tp3416
a(I16
I-13
tp3417
a(I17
I-13
tp3418
a(I16
I-12
tp3419
a(I17
I-12
tp3420
a(I16
I-11
tp3421
a(I17
I-11
tp3422
a(I16
I-10
tp3423
a(I17
I-10
tp3424
a(I16
I-9
tp3425
a(I17
I-9
tp3426
a(I16
I-8
tp3427
a(I17
I-8
tp3428
a(I16
I-7
tp3429
a(I17
I-7
tp3430
a(I16
I-6
tp3431
a(I17
I-6
tp3432
a(I16
I-5
tp3433
a(I17
I-5
tp3434
a(I16
I-4
tp3435
a(I17
I-4
tp3436
a(I16
I-3
tp3437
a(I17
I-3
tp3438
a(I16
I-2
tp3439
a(I17
I-2
tp3440
a(I16
I-1
tp3441
a(I17
I-1
tp3442
a(I16
I0
tp3443
a(I17
I0
tp3444
a(I16
I1
tp3445
a(I17
I1
tp3446
a(I16
I2
tp3447
a(I17
I2
tp3448
a(I16
I3
tp3449
a(I17
I3
tp3450
a(I16
I4
tp3451
a(I17
I4
tp3452
a(I16
I5
tp3453
a(I17
I5
tp3454
a(I16
I6
tp3455
a(I17
I6
tp3456
a(I16
I7
tp3457
a(I17
I7
tp3458
a(I16
I8
tp3459
a(I17
I8
tp3460
a(I41
I0
tp3461
a(I42
I0
tp3462
a(I41
I1
tp3463
a(I42
I1
tp3464
a(I41
I2
tp3465
a(I42
I2
tp3466
a(I41
I3
tp3467
a(I42
I3
tp3468
a(I41
I4
tp3469
a(I42
I4
tp3470
a(I41
I5
tp3471
a(I42
I5
tp3472
a(I41
I6
tp3473
a(I42
I6
tp3474
a(I41
I7
tp3475
a(I42
I7
tp3476
a(I41
I1
tp3477
a(I41
I2
tp3478
a(I42
I1
tp3479
a(I42
I2
tp3480
a(I43
I1
tp3481
a(I43
I2
tp3482
a(I44
I1
tp3483
a(I44
I2
tp3484
a(I45
I1
tp3485
a(I45
I2
tp3486
a(I46
I1
tp3487
a(I46
I2
tp3488
a(I47
I1
tp3489
a(I47
I2
tp3490
a(I48
I1
tp3491
a(I48
I2
tp3492
a(I49
I1
tp3493
a(I49
I2
tp3494
a(I50
I1
tp3495
a(I50
I2
tp3496
a(I51
I1
tp3497
a(I51
I2
tp3498
a(I52
I1
tp3499
a(I52
I2
tp3500
a(I53
I1
tp3501
a(I53
I2
tp3502
a(I54
I1
tp3503
a(I54
I2
tp3504
a(I55
I1
tp3505
a(I55
I2
tp3506
a(I56
I1
tp3507
a(I56
I2
tp3508
a(I57
I1
tp3509
a(I57
I2
tp3510
a(I58
I1
tp3511
a(I58
I2
tp3512
a(I59
I1
tp3513
a(I59
I2
tp3514
a(I60
I1
tp3515
a(I60
I2
tp3516
a(I61
I1
tp3517
a(I61
I2
tp3518
a(I62
I1
tp3519
a(I62
I2
tp3520
a(I60
I0
tp3521
a(I61
I0
tp3522
a(I60
I1
tp3523
a(I61
I1
tp3524
a(I60
I2
tp3525
a(I61
I2
tp3526
a(I60
I3
tp3527
a(I61
I3
tp3528
a(I60
I4
tp3529
a(I61
I4
tp3530
a(I60
I5
tp3531
a(I61
I5
tp3532
a(I60
I6
tp3533
a(I61
I6
tp3534
a(I60
I7
tp3535
a(I61
I7
tp3536
a(I41
I6
tp3537
a(I41
I7
tp3538
a(I42
I6
tp3539
a(I42
I7
tp3540
a(I43
I6
tp3541
a(I43
I7
tp3542
a(I44
I6
tp3543
a(I44
I7
tp3544
a(I45
I6
tp3545
a(I45
I7
tp3546
a(I46
I6
tp3547
a(I46
I7
tp3548
a(I47
I6
tp3549
a(I47
I7
tp3550
a(I48
I6
tp3551
a(I48
I7
tp3552
a(I49
I6
tp3553
a(I49
I7
tp3554
a(I50
I6
tp3555
a(I50
I7
tp3556
a(I51
I6
tp3557
a(I51
I7
tp3558
a(I52
I6
tp3559
a(I52
I7
tp3560
a(I53
I6
tp3561
a(I53
I7
tp3562
a(I54
I6
tp3563
a(I54
I7
tp3564
a(I55
I6
tp3565
a(I55
I7
tp3566
a(I56
I6
tp3567
a(I56
I7
tp3568
a(I57
I6
tp3569
a(I57
I7
tp3570
a(I58
I6
tp3571
a(I58
I7
tp3572
a(I59
I6
tp3573
a(I59
I7
tp3574
a(I60
I6
tp3575
a(I60
I7
tp3576
a(I61
I6
tp3577
a(I61
I7
tp3578
a(I62
I6
tp3579
a(I62
I7
tp3580
a(I26
I10
tp3581
a(I26
I11
tp3582
a(I27
I10
tp3583
a(I27
I11
tp3584
a(I28
I10
tp3585
a(I28
I11
tp3586
a(I29
I10
tp3587
a(I29
I11
tp3588
a(I30
I10
tp3589
a(I30
I11
tp3590
a(I31
I10
tp3591
a(I31
I11
tp3592
a(I32
I10
tp3593
a(I32
I11
tp3594
a(I33
I10
tp3595
a(I33
I11
tp3596
a(I34
I10
tp3597
a(I34
I11
tp3598
a(I35
I10
tp3599
a(I35
I11
tp3600
a(I36
I10
tp3601
a(I36
I11
tp3602
a(I37
I10
tp3603
a(I37
I11
tp3604
a(I38
I10
tp3605
a(I38
I11
tp3606
a(I39
I10
tp3607
a(I39
I11
tp3608
a(I40
I10
tp3609
a(I40
I11
tp3610
a(I41
I10
tp3611
a(I41
I11
tp3612
a(I42
I10
tp3613
a(I42
I11
tp3614
a(I43
I10
tp3615
a(I43
I11
tp3616
a(I44
I10
tp3617
a(I44
I11
tp3618
a(I45
I10
tp3619
a(I45
I11
tp3620
a(I46
I10
tp3621
a(I46
I11
tp3622
a(I47
I10
tp3623
a(I47
I11
tp3624
a(I48
I10
tp3625
a(I48
I11
tp3626
a(I49
I10
tp3627
a(I49
I11
tp3628
a(I50
I10
tp3629
a(I50
I11
tp3630
a(I51
I10
tp3631
a(I51
I11
tp3632
a(I52
I10
tp3633
a(I52
I11
tp3634
a(I53
I10
tp3635
a(I53
I11
tp3636
a(I54
I10
tp3637
a(I54
I11
tp3638
a(I55
I10
tp3639
a(I55
I11
tp3640
a(I56
I10
tp3641
a(I56
I11
tp3642
a(I57
I10
tp3643
a(I57
I11
tp3644
a(I58
I10
tp3645
a(I58
I11
tp3646
a(I59
I10
tp3647
a(I59
I11
tp3648
a(I60
I10
tp3649
a(I60
I11
tp3650
a(I61
I10
tp3651
a(I61
I11
tp3652
a(I62
I10
tp3653
a(I62
I11
tp3654
a(I63
I10
tp3655
a(I63
I11
tp3656
a(I64
I10
tp3657
a(I64
I11
tp3658
a(I65
I10
tp3659
a(I65
I11
tp3660
a(I66
I10
tp3661
a(I66
I11
tp3662
a(I67
I10
tp3663
a(I67
I11
tp3664
a(I68
I10
tp3665
a(I68
I11
tp3666
a(I69
I10
tp3667
a(I69
I11
tp3668
a(I70
I10
tp3669
a(I70
I11
tp3670
a(I71
I10
tp3671
a(I71
I11
tp3672
a(I72
I10
tp3673
a(I72
I11
tp3674
a(I73
I10
tp3675
a(I73
I11
tp3676
a(I74
I10
tp3677
a(I74
I11
tp3678
a(I75
I10
tp3679
a(I75
I11
tp3680
a(I74
I10
tp3681
a(I75
I10
tp3682
a(I74
I11
tp3683
a(I75
I11
tp3684
a(I74
I12
tp3685
a(I75
I12
tp3686
a(I74
I13
tp3687
a(I75
I13
tp3688
a(I74
I14
tp3689
a(I75
I14
tp3690
a(I74
I15
tp3691
a(I75
I15
tp3692
a(I74
I16
tp3693
a(I75
I16
tp3694
a(I74
I17
tp3695
a(I75
I17
tp3696
a(I74
I18
tp3697
a(I75
I18
tp3698
a(I74
I19
tp3699
a(I75
I19
tp3700
a(I74
I20
tp3701
a(I75
I20
tp3702
a(I74
I21
tp3703
a(I75
I21
tp3704
a(I74
I22
tp3705
a(I75
I22
tp3706
a(I74
I23
tp3707
a(I75
I23
tp3708
a(I74
I24
tp3709
a(I75
I24
tp3710
a(I74
I25
tp3711
a(I75
I25
tp3712
a(I74
I26
tp3713
a(I75
I26
tp3714
a(I74
I27
tp3715
a(I75
I27
tp3716
a(I27
I9
tp3717
a(I28
I9
tp3718
a(I27
I10
tp3719
a(I28
I10
tp3720
a(I27
I11
tp3721
a(I28
I11
tp3722
a(I27
I12
tp3723
a(I28
I12
tp3724
a(I27
I13
tp3725
a(I28
I13
tp3726
a(I27
I14
tp3727
a(I28
I14
tp3728
a(I27
I15
tp3729
a(I28
I15
tp3730
a(I27
I16
tp3731
a(I28
I16
tp3732
a(I27
I17
tp3733
a(I28
I17
tp3734
a(I27
I18
tp3735
a(I28
I18
tp3736
a(I27
I19
tp3737
a(I28
I19
tp3738
a(I27
I20
tp3739
a(I28
I20
tp3740
a(I27
I21
tp3741
a(I28
I21
tp3742
a(I27
I22
tp3743
a(I28
I22
tp3744
a(I27
I23
tp3745
a(I28
I23
tp3746
a(I27
I24
tp3747
a(I28
I24
tp3748
a(I27
I25
tp3749
a(I28
I25
tp3750
a(I27
I26
tp3751
a(I28
I26
tp3752
a(I27
I27
tp3753
a(I28
I27
tp3754
a(I27
I28
tp3755
a(I28
I28
tp3756
a(I27
I29
tp3757
a(I28
I29
tp3758
a(I27
I30
tp3759
a(I28
I30
tp3760
a(I27
I31
tp3761
a(I28
I31
tp3762
a(I27
I32
tp3763
a(I28
I32
tp3764
a(I27
I33
tp3765
a(I28
I33
tp3766
a(I27
I34
tp3767
a(I28
I34
tp3768
a(I27
I35
tp3769
a(I28
I35
tp3770
a(I27
I36
tp3771
a(I28
I36
tp3772
a(I27
I37
tp3773
a(I28
I37
tp3774
a(I27
I38
tp3775
a(I28
I38
tp3776
a(I26
I37
tp3777
a(I26
I38
tp3778
a(I27
I37
tp3779
a(I27
I38
tp3780
a(I28
I37
tp3781
a(I28
I38
tp3782
a(I29
I37
tp3783
a(I29
I38
tp3784
a(I30
I37
tp3785
a(I30
I38
tp3786
a(I31
I37
tp3787
a(I31
I38
tp3788
a(I32
I37
tp3789
a(I32
I38
tp3790
a(I33
I37
tp3791
a(I33
I38
tp3792
a(I34
I37
tp3793
a(I34
I38
tp3794
a(I35
I37
tp3795
a(I35
I38
tp3796
a(I36
I37
tp3797
a(I36
I38
tp3798
a(I37
I37
tp3799
a(I37
I38
tp3800
a(I38
I37
tp3801
a(I38
I38
tp3802
a(I39
I37
tp3803
a(I39
I38
tp3804
a(I40
I37
tp3805
a(I40
I38
tp3806
a(I41
I37
tp3807
a(I41
I38
tp3808
a(I42
I37
tp3809
a(I42
I38
tp3810
a(I43
I37
tp3811
a(I43
I38
tp3812
a(I44
I37
tp3813
a(I44
I38
tp3814
a(I45
I37
tp3815
a(I45
I38
tp3816
a(I46
I37
tp3817
a(I46
I38
tp3818
a(I47
I37
tp3819
a(I47
I38
tp3820
a(I48
I37
tp3821
a(I48
I38
tp3822
a(I49
I37
tp3823
a(I49
I38
tp3824
a(I50
I37
tp3825
a(I50
I38
tp3826
a(I51
I37
tp3827
a(I51
I38
tp3828
a(I52
I37
tp3829
a(I52
I38
tp3830
a(I53
I37
tp3831
a(I53
I38
tp3832
a(I54
I37
tp3833
a(I54
I38
tp3834
a(I55
I37
tp3835
a(I55
I38
tp3836
a(I56
I37
tp3837
a(I56
I38
tp3838
a(I57
I37
tp3839
a(I57
I38
tp3840
a(I58
I37
tp3841
a(I58
I38
tp3842
a(I59
I37
tp3843
a(I59
I38
tp3844
a(I60
I37
tp3845
a(I60
I38
tp3846
a(I61
I37
tp3847
a(I61
I38
tp3848
a(I62
I37
tp3849
a(I62
I38
tp3850
a(I63
I37
tp3851
a(I63
I38
tp3852
a(I64
I37
tp3853
a(I64
I38
tp3854
a(I65
I37
tp3855
a(I65
I38
tp3856
a(I66
I37
tp3857
a(I66
I38
tp3858
a(I67
I37
tp3859
a(I67
I38
tp3860
a(I68
I37
tp3861
a(I68
I38
tp3862
a(I69
I37
tp3863
a(I69
I38
tp3864
a(I70
I37
tp3865
a(I70
I38
tp3866
a(I71
I37
tp3867
a(I71
I38
tp3868
a(I72
I37
tp3869
a(I72
I38
tp3870
a(I73
I37
tp3871
a(I73
I38
tp3872
a(I74
I37
tp3873
a(I74
I38
tp3874
a(I75
I37
tp3875
a(I75
I38
tp3876
a(I74
I31
tp3877
a(I75
I31
tp3878
a(I74
I32
tp3879
a(I75
I32
tp3880
a(I74
I33
tp3881
a(I75
I33
tp3882
a(I74
I34
tp3883
a(I75
I34
tp3884
a(I74
I35
tp3885
a(I75
I35
tp3886
a(I74
I36
tp3887
a(I75
I36
tp3888
a(I74
I37
tp3889
a(I75
I37
tp3890
a(I74
I38
tp3891
a(I75
I38
tp3892
a(I61
I14
tp3893
a(I62
I14
tp3894
a(I61
I15
tp3895
a(I62
I15
tp3896
a(I61
I16
tp3897
a(I62
I16
tp3898
a(I61
I17
tp3899
a(I62
I17
tp3900
a(I61
I18
tp3901
a(I62
I18
tp3902
a(I61
I19
tp3903
a(I62
I19
tp3904
a(I61
I20
tp3905
a(I62
I20
tp3906
a(I61
I21
tp3907
a(I62
I21
tp3908
a(I61
I22
tp3909
a(I62
I22
tp3910
a(I61
I23
tp3911
a(I62
I23
tp3912
a(I61
I24
tp3913
a(I62
I24
tp3914
a(I61
I25
tp3915
a(I62
I25
tp3916
a(I61
I26
tp3917
a(I62
I26
tp3918
a(I61
I27
tp3919
a(I62
I27
tp3920
a(I61
I28
tp3921
a(I62
I28
tp3922
a(I61
I29
tp3923
a(I62
I29
tp3924
a(I61
I30
tp3925
a(I62
I30
tp3926
a(I61
I31
tp3927
a(I62
I31
tp3928
a(I61
I32
tp3929
a(I62
I32
tp3930
a(I61
I33
tp3931
a(I62
I33
tp3932
a(I60
I32
tp3933
a(I60
I33
tp3934
a(I61
I32
tp3935
a(I61
I33
tp3936
a(I62
I32
tp3937
a(I62
I33
tp3938
a(I63
I32
tp3939
a(I63
I33
tp3940
a(I64
I32
tp3941
a(I64
I33
tp3942
a(I65
I32
tp3943
a(I65
I33
tp3944
a(I66
I32
tp3945
a(I66
I33
tp3946
a(I67
I32
tp3947
a(I67
I33
tp3948
a(I68
I32
tp3949
a(I68
I33
tp3950
a(I69
I32
tp3951
a(I69
I33
tp3952
a(I70
I32
tp3953
a(I70
I33
tp3954
a(I71
I32
tp3955
a(I71
I33
tp3956
a(I72
I32
tp3957
a(I72
I33
tp3958
a(I73
I32
tp3959
a(I73
I33
tp3960
a(I74
I32
tp3961
a(I74
I33
tp3962
a(I75
I32
tp3963
a(I75
I33
tp3964
a(I-55
I68
tp3965
a(I-55
I69
tp3966
a(I-54
I68
tp3967
a(I-54
I69
tp3968
a(I-53
I68
tp3969
a(I-53
I69
tp3970
a(I-52
I68
tp3971
a(I-52
I69
tp3972
a(I-51
I68
tp3973
a(I-51
I69
tp3974
a(I-50
I68
tp3975
a(I-50
I69
tp3976
a(I-49
I68
tp3977
a(I-49
I69
tp3978
a(I-48
I68
tp3979
a(I-48
I69
tp3980
a(I-47
I68
tp3981
a(I-47
I69
tp3982
a(I-46
I68
tp3983
a(I-46
I69
tp3984
a(I-45
I68
tp3985
a(I-45
I69
tp3986
a(I-44
I68
tp3987
a(I-44
I69
tp3988
a(I-43
I68
tp3989
a(I-43
I69
tp3990
a(I-42
I68
tp3991
a(I-42
I69
tp3992
a(I-41
I68
tp3993
a(I-41
I69
tp3994
a(I-40
I68
tp3995
a(I-40
I69
tp3996
a(I-39
I68
tp3997
a(I-39
I69
tp3998
a(I-38
I68
tp3999
a(I-38
I69
tp4000
a(I-37
I68
tp4001
a(I-37
I69
tp4002
a(I-36
I68
tp4003
a(I-36
I69
tp4004
a(I-35
I68
tp4005
a(I-35
I69
tp4006
a(I-34
I68
tp4007
a(I-34
I69
tp4008
a(I-33
I68
tp4009
a(I-33
I69
tp4010
a(I-32
I68
tp4011
a(I-32
I69
tp4012
a(I-31
I68
tp4013
a(I-31
I69
tp4014
a(I-30
I68
tp4015
a(I-30
I69
tp4016
a(I-29
I68
tp4017
a(I-29
I69
tp4018
a(I-28
I68
tp4019
a(I-28
I69
tp4020
a(I-27
I68
tp4021
a(I-27
I69
tp4022
a(I-26
I68
tp4023
a(I-26
I69
tp4024
a(I-25
I68
tp4025
a(I-25
I69
tp4026
a(I-24
I68
tp4027
a(I-24
I69
tp4028
a(I-23
I68
tp4029
a(I-23
I69
tp4030
a(I-22
I68
tp4031
a(I-22
I69
tp4032
a(I-21
I68
tp4033
a(I-21
I69
tp4034
a(I-20
I68
tp4035
a(I-20
I69
tp4036
a(I-19
I68
tp4037
a(I-19
I69
tp4038
a(I-18
I68
tp4039
a(I-18
I69
tp4040
a(I-17
I68
tp4041
a(I-17
I69
tp4042
a(I-16
I68
tp4043
a(I-16
I69
tp4044
a(I-15
I68
tp4045
a(I-15
I69
tp4046
a(I-14
I68
tp4047
a(I-14
I69
tp4048
a(I-13
I68
tp4049
a(I-13
I69
tp4050
a(I-12
I68
tp4051
a(I-12
I69
tp4052
a(I-11
I68
tp4053
a(I-11
I69
tp4054
a(I-10
I68
tp4055
a(I-10
I69
tp4056
a(I-9
I68
tp4057
a(I-9
I69
tp4058
a(I-8
I68
tp4059
a(I-8
I69
tp4060
a(I-7
I68
tp4061
a(I-7
I69
tp4062
a(I-6
I68
tp4063
a(I-6
I69
tp4064
a(I-5
I68
tp4065
a(I-5
I69
tp4066
a(I-4
I68
tp4067
a(I-4
I69
tp4068
a(I-3
I68
tp4069
a(I-3
I69
tp4070
a(I-2
I68
tp4071
a(I-2
I69
tp4072
a(I-1
I68
tp4073
a(I-1
I69
tp4074
a(I0
I68
tp4075
a(I0
I69
tp4076
a(I1
I68
tp4077
a(I1
I69
tp4078
a(I2
I68
tp4079
a(I2
I69
tp4080
a(I3
I68
tp4081
a(I3
I69
tp4082
a(I4
I68
tp4083
a(I4
I69
tp4084
a(I5
I68
tp4085
a(I5
I69
tp4086
a(I6
I68
tp4087
a(I6
I69
tp4088
a(I79
I-23
tp4089
a(I80
I-23
tp4090
a(I79
I-22
tp4091
a(I80
I-22
tp4092
a(I79
I-21
tp4093
a(I80
I-21
tp4094
a(I79
I-20
tp4095
a(I80
I-20
tp4096
a(I79
I-19
tp4097
a(I80
I-19
tp4098
a(I79
I-18
tp4099
a(I80
I-18
tp4100
a(I79
I-17
tp4101
a(I80
I-17
tp4102
a(I79
I-16
tp4103
a(I80
I-16
tp4104
a(I78
I-17
tp4105
a(I78
I-16
tp4106
a(I79
I-17
tp4107
a(I79
I-16
tp4108
a(I80
I-17
tp4109
a(I80
I-16
tp4110
a(I81
I-17
tp4111
a(I81
I-16
tp4112
a(I82
I-17
tp4113
a(I82
I-16
tp4114
a(I83
I-17
tp4115
a(I83
I-16
tp4116
a(I84
I-17
tp4117
a(I84
I-16
tp4118
a(I85
I-17
tp4119
a(I85
I-16
tp4120
a(I86
I-17
tp4121
a(I86
I-16
tp4122
a(I87
I-17
tp4123
a(I87
I-16
tp4124
a(I88
I-17
tp4125
a(I88
I-16
tp4126
a(I89
I-17
tp4127
a(I89
I-16
tp4128
a(I85
I-12
tp4129
a(I86
I-12
tp4130
a(I85
I-11
tp4131
a(I86
I-11
tp4132
a(I85
I-10
tp4133
a(I86
I-10
tp4134
a(I85
I-9
tp4135
a(I86
I-9
tp4136
a(I85
I-8
tp4137
a(I86
I-8
tp4138
a(I85
I-7
tp4139
a(I86
I-7
tp4140
a(I85
I-6
tp4141
a(I86
I-6
tp4142
a(I85
I-5
tp4143
a(I86
I-5
tp4144
a(I85
I-4
tp4145
a(I86
I-4
tp4146
a(I85
I-3
tp4147
a(I86
I-3
tp4148
a(I85
I-2
tp4149
a(I86
I-2
tp4150
a(I85
I-1
tp4151
a(I86
I-1
tp4152
a(I85
I0
tp4153
a(I86
I0
tp4154
a(I85
I1
tp4155
a(I86
I1
tp4156
a(I78
I6
tp4157
a(I78
I7
tp4158
a(I79
I6
tp4159
a(I79
I7
tp4160
a(I80
I6
tp4161
a(I80
I7
tp4162
a(I81
I6
tp4163
a(I81
I7
tp4164
a(I82
I6
tp4165
a(I82
I7
tp4166
a(I83
I6
tp4167
a(I83
I7
tp4168
a(I84
I6
tp4169
a(I84
I7
tp4170
a(I85
I6
tp4171
a(I85
I7
tp4172
a(I86
I6
tp4173
a(I86
I7
tp4174
a(I87
I6
tp4175
a(I87
I7
tp4176
a(I88
I6
tp4177
a(I88
I7
tp4178
a(I89
I6
tp4179
a(I89
I7
tp4180
a(I79
I5
tp4181
a(I80
I5
tp4182
a(I79
I6
tp4183
a(I80
I6
tp4184
a(I79
I7
tp4185
a(I80
I7
tp4186
a(I79
I8
tp4187
a(I80
I8
tp4188
a(I79
I9
tp4189
a(I80
I9
tp4190
a(I79
I10
tp4191
a(I80
I10
tp4192
a(I79
I11
tp4193
a(I80
I11
tp4194
a(I79
I12
tp4195
a(I80
I12
tp4196
a(I79
I13
tp4197
a(I80
I13
tp4198
a(I79
I14
tp4199
a(I80
I14
tp4200
a(I79
I12
tp4201
a(I79
I13
tp4202
a(I80
I12
tp4203
a(I80
I13
tp4204
a(I81
I12
tp4205
a(I81
I13
tp4206
a(I82
I12
tp4207
a(I82
I13
tp4208
a(I80
I12
tp4209
a(I81
I12
tp4210
a(I80
I13
tp4211
a(I81
I13
tp4212
a(I80
I14
tp4213
a(I81
I14
tp4214
a(I80
I15
tp4215
a(I81
I15
tp4216
a(I80
I16
tp4217
a(I81
I16
tp4218
a(I80
I17
tp4219
a(I81
I17
tp4220
a(I80
I18
tp4221
a(I81
I18
tp4222
a(I80
I19
tp4223
a(I81
I19
tp4224
a(I80
I20
tp4225
a(I81
I20
tp4226
a(I80
I21
tp4227
a(I81
I21
tp4228
a(I80
I22
tp4229
a(I81
I22
tp4230
a(I80
I23
tp4231
a(I81
I23
tp4232
a(I80
I24
tp4233
a(I81
I24
tp4234
a(I80
I25
tp4235
a(I81
I25
tp4236
a(I80
I26
tp4237
a(I81
I26
tp4238
a(I80
I27
tp4239
a(I81
I27
tp4240
a(I80
I28
tp4241
a(I81
I28
tp4242
a(I80
I29
tp4243
a(I81
I29
tp4244
a(I80
I30
tp4245
a(I81
I30
tp4246
a(I80
I31
tp4247
a(I81
I31
tp4248
a(I80
I32
tp4249
a(I81
I32
tp4250
a(I80
I33
tp4251
a(I81
I33
tp4252
a(I80
I34
tp4253
a(I81
I34
tp4254
a(I80
I35
tp4255
a(I81
I35
tp4256
a(I80
I36
tp4257
a(I81
I36
tp4258
a(I80
I37
tp4259
a(I81
I37
tp4260
a(I80
I38
tp4261
a(I81
I38
tp4262
a(I80
I39
tp4263
a(I81
I39
tp4264
a(I-84
I41
tp4265
a(I-84
I42
tp4266
a(I-83
I41
tp4267
a(I-83
I42
tp4268
a(I-82
I41
tp4269
a(I-82
I42
tp4270
a(I-81
I41
tp4271
a(I-81
I42
tp4272
a(I-80
I41
tp4273
a(I-80
I42
tp4274
a(I-79
I41
tp4275
a(I-79
I42
tp4276
a(I-78
I41
tp4277
a(I-78
I42
tp4278
a(I-77
I41
tp4279
a(I-77
I42
tp4280
a(I-76
I41
tp4281
a(I-76
I42
tp4282
a(I-75
I41
tp4283
a(I-75
I42
tp4284
a(I-74
I41
tp4285
a(I-74
I42
tp4286
a(I-73
I41
tp4287
a(I-73
I42
tp4288
a(I-72
I41
tp4289
a(I-72
I42
tp4290
a(I-71
I41
tp4291
a(I-71
I42
tp4292
a(I-70
I41
tp4293
a(I-70
I42
tp4294
a(I-69
I41
tp4295
a(I-69
I42
tp4296
a(I77
I37
tp4297
a(I77
I38
tp4298
a(I78
I37
tp4299
a(I78
I38
tp4300
a(I79
I37
tp4301
a(I79
I38
tp4302
a(I80
I37
tp4303
a(I80
I38
tp4304
a(I81
I37
tp4305
a(I81
I38
tp4306
a(I82
I37
tp4307
a(I82
I38
tp4308
a(I-84
I68
tp4309
a(I-84
I69
tp4310
a(I-83
I68
tp4311
a(I-83
I69
tp4312
a(I-82
I68
tp4313
a(I-82
I69
tp4314
a(I-81
I68
tp4315
a(I-81
I69
tp4316
a(I-80
I68
tp4317
a(I-80
I69
tp4318
a(I-79
I68
tp4319
a(I-79
I69
tp4320
a(I-78
I68
tp4321
a(I-78
I69
tp4322
a(I-77
I68
tp4323
a(I-77
I69
tp4324
a(I-76
I68
tp4325
a(I-76
I69
tp4326
a(I-75
I68
tp4327
a(I-75
I69
tp4328
a(I-74
I68
tp4329
a(I-74
I69
tp4330
a(I-73
I68
tp4331
a(I-73
I69
tp4332
a(I-72
I68
tp4333
a(I-72
I69
tp4334
a(I-71
I68
tp4335
a(I-71
I69
tp4336
a(I-70
I68
tp4337
a(I-70
I69
tp4338
a(I-69
I68
tp4339
a(I-69
I69
tp4340
a(I-68
I68
tp4341
a(I-68
I69
tp4342
a(I-67
I68
tp4343
a(I-67
I69
tp4344
a(I-66
I68
tp4345
a(I-66
I69
tp4346
a(I-65
I68
tp4347
a(I-65
I69
tp4348
a(I-64
I68
tp4349
a(I-64
I69
tp4350
a(I-63
I68
tp4351
a(I-63
I69
tp4352
a(I-62
I68
tp4353
a(I-62
I69
tp4354
a(I-61
I68
tp4355
a(I-61
I69
tp4356
a(I-60
I68
tp4357
a(I-60
I69
tp4358
a(I-59
I68
tp4359
a(I-59
I69
tp4360
a(I-58
I68
tp4361
a(I-58
I69
tp4362
a(I-57
I68
tp4363
a(I-57
I69
tp4364
a(I-56
I68
tp4365
a(I-56
I69
tp4366
a(I-55
I68
tp4367
a(I-55
I69
tp4368
a(I-54
I68
tp4369
a(I-54
I69
tp4370
a(I-53
I68
tp4371
a(I-53
I69
tp4372
a(I-68
I57
tp4373
a(I-67
I57
tp4374
a(I-68
I58
tp4375
a(I-67
I58
tp4376
a(I-68
I59
tp4377
a(I-67
I59
tp4378
a(I-68
I60
tp4379
a(I-67
I60
tp4380
a(I-68
I61
tp4381
a(I-67
I61
tp4382
a(I-68
I62
tp4383
a(I-67
I62
tp4384
a(I-68
I63
tp4385
a(I-67
I63
tp4386
a(I-68
I64
tp4387
a(I-67
I64
tp4388
a(I-68
I65
tp4389
a(I-67
I65
tp4390
a(I-68
I66
tp4391
a(I-67
I66
tp4392
a(I-68
I67
tp4393
a(I-67
I67
tp4394
a(I-68
I68
tp4395
a(I-67
I68
tp4396
a(I-69
I57
tp4397
a(I-69
I58
tp4398
a(I-68
I57
tp4399
a(I-68
I58
tp4400
a(I-67
I57
tp4401
a(I-67
I58
tp4402
a(I-66
I57
tp4403
a(I-66
I58
tp4404
a(I-65
I57
tp4405
a(I-65
I58
tp4406
a(I-64
I57
tp4407
a(I-64
I58
tp4408
a(I-54
I59
tp4409
a(I-53
I59
tp4410
a(I-54
I60
tp4411
a(I-53
I60
tp4412
a(I-54
I61
tp4413
a(I-53
I61
tp4414
a(I-54
I62
tp4415
a(I-53
I62
tp4416
a(I-54
I63
tp4417
a(I-53
I63
tp4418
a(I-54
I64
tp4419
a(I-53
I64
tp4420
a(I-54
I65
tp4421
a(I-53
I65
tp4422
a(I-54
I66
tp4423
a(I-53
I66
tp4424
a(I-54
I67
tp4425
a(I-53
I67
tp4426
a(I-54
I68
tp4427
a(I-53
I68
tp4428
a(I-54
I69
tp4429
a(I-53
I69
tp4430
a(I-54
I70
tp4431
a(I-53
I70
tp4432
a(I-58
I59
tp4433
a(I-58
I60
tp4434
a(I-57
I59
tp4435
a(I-57
I60
tp4436
a(I-56
I59
tp4437
a(I-56
I60
tp4438
a(I-55
I59
tp4439
a(I-55
I60
tp4440
a(I-54
I59
tp4441
a(I-54
I60
tp4442
a(I-53
I59
tp4443
a(I-53
I60
tp4444
a(I-71
I41
tp4445
a(I-71
I42
tp4446
a(I-70
I41
tp4447
a(I-70
I42
tp4448
a(I-69
I41
tp4449
a(I-69
I42
tp4450
a(I-68
I41
tp4451
a(I-68
I42
tp4452
a(I-67
I41
tp4453
a(I-67
I42
tp4454
a(I-66
I41
tp4455
a(I-66
I42
tp4456
a(I-57
I57
tp4457
a(I-56
I57
tp4458
a(I-57
I58
tp4459
a(I-56
I58
tp4460
a(I-57
I59
tp4461
a(I-56
I59
tp4462
a(I-57
I60
tp4463
a(I-56
I60
tp4464
a(I-42
I57
tp4465
a(I-41
I57
tp4466
a(I-42
I58
tp4467
a(I-41
I58
tp4468
a(I-42
I59
tp4469
a(I-41
I59
tp4470
a(I-42
I60
tp4471
a(I-41
I60
tp4472
a(I-42
I61
tp4473
a(I-41
I61
tp4474
a(I-42
I62
tp4475
a(I-41
I62
tp4476
a(I-42
I63
tp4477
a(I-41
I63
tp4478
a(I-42
I64
tp4479
a(I-41
I64
tp4480
a(I-42
I65
tp4481
a(I-41
I65
tp4482
a(I-42
I66
tp4483
a(I-41
I66
tp4484
a(I-42
I67
tp4485
a(I-41
I67
tp4486
a(I-42
I68
tp4487
a(I-41
I68
tp4488
a(I-42
I69
tp4489
a(I-41
I69
tp4490
a(I-42
I70
tp4491
a(I-41
I70
tp4492
a(I-28
I66
tp4493
a(I-27
I66
tp4494
a(I-28
I67
tp4495
a(I-27
I67
tp4496
a(I-28
I68
tp4497
a(I-27
I68
tp4498
a(I-28
I69
tp4499
a(I-27
I69
tp4500
a(I-30
I66
tp4501
a(I-30
I67
tp4502
a(I-29
I66
tp4503
a(I-29
I67
tp4504
a(I-28
I66
tp4505
a(I-28
I67
tp4506
a(I-27
I66
tp4507
a(I-27
I67
tp4508
a(I-29
I58
tp4509
a(I-28
I58
tp4510
a(I-29
I59
tp4511
a(I-28
I59
tp4512
a(I-29
I60
tp4513
a(I-28
I60
tp4514
a(I-29
I61
tp4515
a(I-28
I61
tp4516
a(I-29
I62
tp4517
a(I-28
I62
tp4518
a(I-29
I63
tp4519
a(I-28
I63
tp4520
a(I-29
I64
tp4521
a(I-28
I64
tp4522
a(I-29
I65
tp4523
a(I-28
I65
tp4524
a(I-29
I66
tp4525
a(I-28
I66
tp4526
a(I-29
I67
tp4527
a(I-28
I67
tp4528
a(I-67
I41
tp4529
a(I-66
I41
tp4530
a(I-67
I42
tp4531
a(I-66
I42
tp4532
a(I-67
I43
tp4533
a(I-66
I43
tp4534
a(I-67
I44
tp4535
a(I-66
I44
tp4536
a(I-67
I45
tp4537
a(I-66
I45
tp4538
a(I-67
I46
tp4539
a(I-66
I46
tp4540
a(I-67
I47
tp4541
a(I-66
I47
tp4542
a(I-67
I48
tp4543
a(I-66
I48
tp4544
a(I-67
I49
tp4545
a(I-66
I49
tp4546
a(I-67
I50
tp4547
a(I-66
I50
tp4548
a(I-67
I51
tp4549
a(I-66
I51
tp4550
a(I-67
I52
tp4551
a(I-66
I52
tp4552
a(I-67
I53
tp4553
a(I-66
I53
tp4554
a(I-67
I54
tp4555
a(I-66
I54
tp4556
a(I-23
I57
tp4557
a(I-22
I57
tp4558
a(I-23
I58
tp4559
a(I-22
I58
tp4560
a(I-23
I59
tp4561
a(I-22
I59
tp4562
a(I-23
I60
tp4563
a(I-22
I60
tp4564
a(I-23
I61
tp4565
a(I-22
I61
tp4566
a(I-23
I62
tp4567
a(I-22
I62
tp4568
a(I-23
I63
tp4569
a(I-22
I63
tp4570
a(I-23
I64
tp4571
a(I-22
I64
tp4572
a(I-23
I65
tp4573
a(I-22
I65
tp4574
a(I-23
I66
tp4575
a(I-22
I66
tp4576
a(I-23
I67
tp4577
a(I-22
I67
tp4578
a(I-23
I68
tp4579
a(I-22
I68
tp4580
a(I-23
I69
tp4581
a(I-22
I69
tp4582
a(I-23
I70
tp4583
a(I-22
I70
tp4584
a(I-8
I58
tp4585
a(I-7
I58
tp4586
a(I-8
I59
tp4587
a(I-7
I59
tp4588
a(I-8
I60
tp4589
a(I-7
I60
tp4590
a(I-8
I61
tp4591
a(I-7
I61
tp4592
a(I-8
I62
tp4593
a(I-7
I62
tp4594
a(I-8
I63
tp4595
a(I-7
I63
tp4596
a(I-8
I64
tp4597
a(I-7
I64
tp4598
a(I-8
I65
tp4599
a(I-7
I65
tp4600
a(I-8
I66
tp4601
a(I-7
I66
tp4602
a(I-8
I67
tp4603
a(I-7
I67
tp4604
a(I-8
I68
tp4605
a(I-7
I68
tp4606
a(I-8
I69
tp4607
a(I-7
I69
tp4608
a(I-50
I53
tp4609
a(I-50
I54
tp4610
a(I-49
I53
tp4611
a(I-49
I54
tp4612
a(I-48
I53
tp4613
a(I-48
I54
tp4614
a(I-47
I53
tp4615
a(I-47
I54
tp4616
a(I-46
I53
tp4617
a(I-46
I54
tp4618
a(I-45
I53
tp4619
a(I-45
I54
tp4620
a(I-44
I53
tp4621
a(I-44
I54
tp4622
a(I-43
I53
tp4623
a(I-43
I54
tp4624
a(I-42
I53
tp4625
a(I-42
I54
tp4626
a(I-41
I53
tp4627
a(I-41
I54
tp4628
a(I-40
I53
tp4629
a(I-40
I54
tp4630
a(I-39
I53
tp4631
a(I-39
I54
tp4632
a(I-38
I53
tp4633
a(I-38
I54
tp4634
a(I-37
I53
tp4635
a(I-37
I54
tp4636
a(I-36
I53
tp4637
a(I-36
I54
tp4638
a(I-35
I53
tp4639
a(I-35
I54
tp4640
a(I-34
I53
tp4641
a(I-34
I54
tp4642
a(I-33
I53
tp4643
a(I-33
I54
tp4644
a(I-32
I53
tp4645
a(I-32
I54
tp4646
a(I-31
I53
tp4647
a(I-31
I54
tp4648
a(I-30
I53
tp4649
a(I-30
I54
tp4650
a(I-29
I53
tp4651
a(I-29
I54
tp4652
a(I-28
I53
tp4653
a(I-28
I54
tp4654
a(I-27
I53
tp4655
a(I-27
I54
tp4656
a(I-26
I53
tp4657
a(I-26
I54
tp4658
a(I-25
I53
tp4659
a(I-25
I54
tp4660
a(I-24
I53
tp4661
a(I-24
I54
tp4662
a(I-23
I53
tp4663
a(I-23
I54
tp4664
a(I-22
I53
tp4665
a(I-22
I54
tp4666
a(I-21
I53
tp4667
a(I-21
I54
tp4668
a(I-20
I53
tp4669
a(I-20
I54
tp4670
a(I-19
I53
tp4671
a(I-19
I54
tp4672
a(I-18
I53
tp4673
a(I-18
I54
tp4674
a(I-17
I53
tp4675
a(I-17
I54
tp4676
a(I-16
I53
tp4677
a(I-16
I54
tp4678
a(I-15
I53
tp4679
a(I-15
I54
tp4680
a(I-14
I53
tp4681
a(I-14
I54
tp4682
a(I-13
I53
tp4683
a(I-13
I54
tp4684
a(I-68
I52
tp4685
a(I-68
I53
tp4686
a(I-67
I52
tp4687
a(I-67
I53
tp4688
a(I-66
I52
tp4689
a(I-66
I53
tp4690
a(I-65
I52
tp4691
a(I-65
I53
tp4692
a(I-64
I52
tp4693
a(I-64
I53
tp4694
a(I-63
I52
tp4695
a(I-63
I53
tp4696
a(I-62
I52
tp4697
a(I-62
I53
tp4698
a(I-61
I52
tp4699
a(I-61
I53
tp4700
a(I-60
I52
tp4701
a(I-60
I53
tp4702
a(I-59
I52
tp4703
a(I-59
I53
tp4704
a(I-58
I52
tp4705
a(I-58
I53
tp4706
a(I-57
I52
tp4707
a(I-57
I53
tp4708
a(I-56
I52
tp4709
a(I-56
I53
tp4710
a(I-55
I52
tp4711
a(I-55
I53
tp4712
a(I-54
I52
tp4713
a(I-54
I53
tp4714
a(I-53
I52
tp4715
a(I-53
I53
tp4716
a(I-12
I53
tp4717
a(I-12
I54
tp4718
a(I-11
I53
tp4719
a(I-11
I54
tp4720
a(I-10
I53
tp4721
a(I-10
I54
tp4722
a(I-9
I53
tp4723
a(I-9
I54
tp4724
a(I-8
I53
tp4725
a(I-8
I54
tp4726
a(I-7
I53
tp4727
a(I-7
I54
tp4728
a(I-6
I53
tp4729
a(I-6
I54
tp4730
a(I-5
I53
tp4731
a(I-5
I54
tp4732
a(I-6
I41
tp4733
a(I-5
I41
tp4734
a(I-6
I42
tp4735
a(I-5
I42
tp4736
a(I-6
I43
tp4737
a(I-5
I43
tp4738
a(I-6
I44
tp4739
a(I-5
I44
tp4740
a(I-6
I45
tp4741
a(I-5
I45
tp4742
a(I-6
I46
tp4743
a(I-5
I46
tp4744
a(I-6
I47
tp4745
a(I-5
I47
tp4746
a(I-6
I48
tp4747
a(I-5
I48
tp4748
a(I-6
I49
tp4749
a(I-5
I49
tp4750
a(I-6
I50
tp4751
a(I-5
I50
tp4752
a(I-6
I51
tp4753
a(I-5
I51
tp4754
a(I-6
I52
tp4755
a(I-5
I52
tp4756
a(I-6
I53
tp4757
a(I-5
I53
tp4758
a(I-6
I54
tp4759
a(I-5
I54
tp4760
a(I-7
I53
tp4761
a(I-7
I54
tp4762
a(I-6
I53
tp4763
a(I-6
I54
tp4764
a(I-5
I53
tp4765
a(I-5
I54
tp4766
a(I-4
I53
tp4767
a(I-4
I54
tp4768
a(I-3
I53
tp4769
a(I-3
I54
tp4770
a(I-2
I53
tp4771
a(I-2
I54
tp4772
a(I-1
I53
tp4773
a(I-1
I54
tp4774
a(I0
I53
tp4775
a(I0
I54
tp4776
a(I1
I53
tp4777
a(I1
I54
tp4778
a(I2
I53
tp4779
a(I2
I54
tp4780
a(I3
I53
tp4781
a(I3
I54
tp4782
a(I4
I53
tp4783
a(I4
I54
tp4784
a(I6
I53
tp4785
a(I6
I54
tp4786
a(I7
I53
tp4787
a(I7
I54
tp4788
a(I8
I53
tp4789
a(I8
I54
tp4790
a(I9
I53
tp4791
a(I9
I54
tp4792
a(I8
I41
tp4793
a(I9
I41
tp4794
a(I8
I42
tp4795
a(I9
I42
tp4796
a(I8
I43
tp4797
a(I9
I43
tp4798
a(I8
I44
tp4799
a(I9
I44
tp4800
a(I8
I45
tp4801
a(I9
I45
tp4802
a(I8
I46
tp4803
a(I9
I46
tp4804
a(I8
I47
tp4805
a(I9
I47
tp4806
a(I8
I48
tp4807
a(I9
I48
tp4808
a(I8
I49
tp4809
a(I9
I49
tp4810
a(I8
I50
tp4811
a(I9
I50
tp4812
a(I8
I51
tp4813
a(I9
I51
tp4814
a(I8
I52
tp4815
a(I9
I52
tp4816
a(I8
I53
tp4817
a(I9
I53
tp4818
a(I8
I54
tp4819
a(I9
I54
tp4820
a(I49
I68
tp4821
a(I49
I69
tp4822
a(I50
I68
tp4823
a(I50
I69
tp4824
a(I51
I68
tp4825
a(I51
I69
tp4826
a(I52
I68
tp4827
a(I52
I69
tp4828
a(I53
I68
tp4829
a(I53
I69
tp4830
a(I54
I68
tp4831
a(I54
I69
tp4832
a(I55
I68
tp4833
a(I55
I69
tp4834
a(I56
I68
tp4835
a(I56
I69
tp4836
a(I57
I68
tp4837
a(I57
I69
tp4838
a(I58
I68
tp4839
a(I58
I69
tp4840
a(I59
I68
tp4841
a(I59
I69
tp4842
a(I60
I68
tp4843
a(I60
I69
tp4844
a(I61
I68
tp4845
a(I61
I69
tp4846
a(I62
I68
tp4847
a(I62
I69
tp4848
a(I63
I68
tp4849
a(I63
I69
tp4850
a(I64
I68
tp4851
a(I64
I69
tp4852
a(I65
I68
tp4853
a(I65
I69
tp4854
a(I66
I68
tp4855
a(I66
I69
tp4856
a(I67
I68
tp4857
a(I67
I69
tp4858
a(I68
I68
tp4859
a(I68
I69
tp4860
a(I69
I68
tp4861
a(I69
I69
tp4862
a(I70
I68
tp4863
a(I70
I69
tp4864
a(I71
I68
tp4865
a(I71
I69
tp4866
a(I72
I68
tp4867
a(I72
I69
tp4868
a(I73
I68
tp4869
a(I73
I69
tp4870
a(I74
I68
tp4871
a(I74
I69
tp4872
a(I75
I68
tp4873
a(I75
I69
tp4874
a(I76
I68
tp4875
a(I76
I69
tp4876
a(I77
I68
tp4877
a(I77
I69
tp4878
a(I78
I68
tp4879
a(I78
I69
tp4880
a(I79
I68
tp4881
a(I79
I69
tp4882
a(I80
I68
tp4883
a(I80
I69
tp4884
a(I81
I68
tp4885
a(I81
I69
tp4886
a(I82
I68
tp4887
a(I82
I69
tp4888
a(I83
I68
tp4889
a(I83
I69
tp4890
a(I84
I68
tp4891
a(I84
I69
tp4892
a(I85
I68
tp4893
a(I85
I69
tp4894
a(I86
I68
tp4895
a(I86
I69
tp4896
a(I87
I68
tp4897
a(I87
I69
tp4898
a(I88
I68
tp4899
a(I88
I69
tp4900
a(I89
I68
tp4901
a(I89
I69
tp4902
a(I90
I68
tp4903
a(I90
I69
tp4904
a(I89
I40
tp4905
a(I90
I40
tp4906
a(I89
I41
tp4907
a(I90
I41
tp4908
a(I89
I42
tp4909
a(I90
I42
tp4910
a(I89
I43
tp4911
a(I90
I43
tp4912
a(I89
I44
tp4913
a(I90
I44
tp4914
a(I89
I45
tp4915
a(I90
I45
tp4916
a(I89
I46
tp4917
a(I90
I46
tp4918
a(I89
I47
tp4919
a(I90
I47
tp4920
a(I89
I48
tp4921
a(I90
I48
tp4922
a(I89
I49
tp4923
a(I90
I49
tp4924
a(I89
I50
tp4925
a(I90
I50
tp4926
a(I89
I51
tp4927
a(I90
I51
tp4928
a(I89
I52
tp4929
a(I90
I52
tp4930
a(I89
I53
tp4931
a(I90
I53
tp4932
a(I89
I54
tp4933
a(I90
I54
tp4934
a(I89
I55
tp4935
a(I90
I55
tp4936
a(I89
I56
tp4937
a(I90
I56
tp4938
a(I89
I57
tp4939
a(I90
I57
tp4940
a(I89
I58
tp4941
a(I90
I58
tp4942
a(I89
I59
tp4943
a(I90
I59
tp4944
a(I89
I60
tp4945
a(I90
I60
tp4946
a(I89
I61
tp4947
a(I90
I61
tp4948
a(I89
I62
tp4949
a(I90
I62
tp4950
a(I89
I63
tp4951
a(I90
I63
tp4952
a(I89
I64
tp4953
a(I90
I64
tp4954
a(I89
I65
tp4955
a(I90
I65
tp4956
a(I89
I66
tp4957
a(I90
I66
tp4958
a(I89
I67
tp4959
a(I90
I67
tp4960
a(I89
I68
tp4961
a(I90
I68
tp4962
a(I89
I69
tp4963
a(I90
I69
tp4964
a(I-54
I45
tp4965
a(I-53
I45
tp4966
a(I-54
I46
tp4967
a(I-53
I46
tp4968
a(I-54
I47
tp4969
a(I-53
I47
tp4970
a(I-54
I48
tp4971
a(I-53
I48
tp4972
a(I-54
I49
tp4973
a(I-53
I49
tp4974
a(I-54
I50
tp4975
a(I-53
I50
tp4976
a(I-54
I51
tp4977
a(I-53
I51
tp4978
a(I-54
I52
tp4979
a(I-53
I52
tp4980
a(I-54
I53
tp4981
a(I-53
I53
tp4982
a(I-54
I54
tp4983
a(I-53
I54
tp4984
a(I77
I41
tp4985
a(I77
I42
tp4986
a(I78
I41
tp4987
a(I78
I42
tp4988
a(I79
I41
tp4989
a(I79
I42
tp4990
a(I80
I41
tp4991
a(I80
I42
tp4992
a(I81
I41
tp4993
a(I81
I42
tp4994
a(I82
I41
tp4995
a(I82
I42
tp4996
a(I83
I41
tp4997
a(I83
I42
tp4998
a(I84
I41
tp4999
a(I84
I42
tp5000
a(I85
I41
tp5001
a(I85
I42
tp5002
a(I86
I41
tp5003
a(I86
I42
tp5004
a(I87
I41
tp5005
a(I87
I42
tp5006
a(I88
I41
tp5007
a(I88
I42
tp5008
a(I89
I41
tp5009
a(I89
I42
tp5010
a(I90
I41
tp5011
a(I90
I42
tp5012
a(I78
I40
tp5013
a(I79
I40
tp5014
a(I78
I41
tp5015
a(I79
I41
tp5016
a(I78
I42
tp5017
a(I79
I42
tp5018
a(I78
I43
tp5019
a(I79
I43
tp5020
a(I72
I42
tp5021
a(I72
I43
tp5022
a(I73
I42
tp5023
a(I73
I43
tp5024
a(I74
I42
tp5025
a(I74
I43
tp5026
a(I75
I42
tp5027
a(I75
I43
tp5028
a(I76
I42
tp5029
a(I76
I43
tp5030
a(I77
I42
tp5031
a(I77
I43
tp5032
a(I78
I42
tp5033
a(I78
I43
tp5034
a(I79
I42
tp5035
a(I79
I43
tp5036
a(I49
I42
tp5037
a(I50
I42
tp5038
a(I49
I43
tp5039
a(I50
I43
tp5040
a(I49
I44
tp5041
a(I50
I44
tp5042
a(I49
I45
tp5043
a(I50
I45
tp5044
a(I49
I46
tp5045
a(I50
I46
tp5046
a(I49
I47
tp5047
a(I50
I47
tp5048
a(I49
I48
tp5049
a(I50
I48
tp5050
a(I49
I49
tp5051
a(I50
I49
tp5052
a(I49
I50
tp5053
a(I50
I50
tp5054
a(I49
I51
tp5055
a(I50
I51
tp5056
a(I49
I52
tp5057
a(I50
I52
tp5058
a(I49
I53
tp5059
a(I50
I53
tp5060
a(I49
I54
tp5061
a(I50
I54
tp5062
a(I49
I55
tp5063
a(I50
I55
tp5064
a(I49
I56
tp5065
a(I50
I56
tp5066
a(I49
I57
tp5067
a(I50
I57
tp5068
a(I49
I58
tp5069
a(I50
I58
tp5070
a(I49
I59
tp5071
a(I50
I59
tp5072
a(I49
I60
tp5073
a(I50
I60
tp5074
a(I49
I61
tp5075
a(I50
I61
tp5076
a(I49
I62
tp5077
a(I50
I62
tp5078
a(I49
I63
tp5079
a(I50
I63
tp5080
a(I49
I64
tp5081
a(I50
I64
tp5082
a(I49
I65
tp5083
a(I50
I65
tp5084
a(I49
I66
tp5085
a(I50
I66
tp5086
a(I49
I67
tp5087
a(I50
I67
tp5088
a(I49
I68
tp5089
a(I50
I68
tp5090
a(I49
I69
tp5091
a(I50
I69
tp5092
a(I49
I42
tp5093
a(I49
I43
tp5094
a(I50
I42
tp5095
a(I50
I43
tp5096
a(I51
I42
tp5097
a(I51
I43
tp5098
a(I52
I42
tp5099
a(I52
I43
tp5100
a(I53
I42
tp5101
a(I53
I43
tp5102
a(I54
I42
tp5103
a(I54
I43
tp5104
a(I55
I42
tp5105
a(I55
I43
tp5106
a(I56
I42
tp5107
a(I56
I43
tp5108
a(I57
I42
tp5109
a(I57
I43
tp5110
a(I58
I42
tp5111
a(I58
I43
tp5112
a(I59
I42
tp5113
a(I59
I43
tp5114
a(I60
I42
tp5115
a(I60
I43
tp5116
a(I58
I42
tp5117
a(I59
I42
tp5118
a(I58
I43
tp5119
a(I59
I43
tp5120
a(I58
I44
tp5121
a(I59
I44
tp5122
a(I58
I45
tp5123
a(I59
I45
tp5124
a(I58
I46
tp5125
a(I59
I46
tp5126
a(I58
I47
tp5127
a(I59
I47
tp5128
a(I58
I46
tp5129
a(I58
I47
tp5130
a(I59
I46
tp5131
a(I59
I47
tp5132
a(I60
I46
tp5133
a(I60
I47
tp5134
a(I61
I46
tp5135
a(I61
I47
tp5136
a(I62
I46
tp5137
a(I62
I47
tp5138
a(I63
I46
tp5139
a(I63
I47
tp5140
a(I64
I46
tp5141
a(I64
I47
tp5142
a(I65
I46
tp5143
a(I65
I47
tp5144
a(I66
I46
tp5145
a(I66
I47
tp5146
a(I67
I46
tp5147
a(I67
I47
tp5148
a(I68
I46
tp5149
a(I68
I47
tp5150
a(I69
I46
tp5151
a(I69
I47
tp5152
a(I68
I42
tp5153
a(I69
I42
tp5154
a(I68
I43
tp5155
a(I69
I43
tp5156
a(I68
I44
tp5157
a(I69
I44
tp5158
a(I68
I45
tp5159
a(I69
I45
tp5160
a(I68
I46
tp5161
a(I69
I46
tp5162
a(I68
I47
tp5163
a(I69
I47
tp5164
a(I-64
I46
tp5165
a(I-64
I47
tp5166
a(I-63
I46
tp5167
a(I-63
I47
tp5168
a(I-62
I46
tp5169
a(I-62
I47
tp5170
a(I-61
I46
tp5171
a(I-61
I47
tp5172
a(I-60
I46
tp5173
a(I-60
I47
tp5174
a(I-59
I46
tp5175
a(I-59
I47
tp5176
a(I-58
I46
tp5177
a(I-58
I47
tp5178
a(I-57
I46
tp5179
a(I-57
I47
tp5180
a(I-56
I46
tp5181
a(I-56
I47
tp5182
a(I-55
I46
tp5183
a(I-55
I47
tp5184
a(I-54
I46
tp5185
a(I-54
I47
tp5186
a(I-53
I46
tp5187
a(I-53
I47
tp5188
a(I-77
I9
tp5189
a(I-76
I9
tp5190
a(I-77
I10
tp5191
a(I-76
I10
tp5192
a(I-77
I11
tp5193
a(I-76
I11
tp5194
a(I-77
I12
tp5195
a(I-76
I12
tp5196
a(I-77
I13
tp5197
a(I-76
I13
tp5198
a(I-77
I14
tp5199
a(I-76
I14
tp5200
a(I-77
I15
tp5201
a(I-76
I15
tp5202
a(I-77
I16
tp5203
a(I-76
I16
tp5204
a(I-77
I17
tp5205
a(I-76
I17
tp5206
a(I-77
I18
tp5207
a(I-76
I18
tp5208
a(I-77
I19
tp5209
a(I-76
I19
tp5210
a(I-77
I20
tp5211
a(I-76
I20
tp5212
a(I-77
I21
tp5213
a(I-76
I21
tp5214
a(I-77
I22
tp5215
a(I-76
I22
tp5216
a(I-77
I23
tp5217
a(I-76
I23
tp5218
a(I-77
I24
tp5219
a(I-76
I24
tp5220
a(I-77
I25
tp5221
a(I-76
I25
tp5222
a(I-77
I26
tp5223
a(I-76
I26
tp5224
a(I-77
I27
tp5225
a(I-76
I27
tp5226
a(I-77
I28
tp5227
a(I-76
I28
tp5228
a(I-77
I29
tp5229
a(I-76
I29
tp5230
a(I-77
I30
tp5231
a(I-76
I30
tp5232
a(I-77
I31
tp5233
a(I-76
I31
tp5234
a(I-77
I32
tp5235
a(I-76
I32
tp5236
a(I-77
I33
tp5237
a(I-76
I33
tp5238
a(I-77
I34
tp5239
a(I-76
I34
tp5240
a(I-77
I35
tp5241
a(I-76
I35
tp5242
a(I-77
I36
tp5243
a(I-76
I36
tp5244
a(I-77
I37
tp5245
a(I-76
I37
tp5246
a(I-77
I38
tp5247
a(I-76
I38
tp5248
a(I-77
I10
tp5249
a(I-77
I11
tp5250
a(I-76
I10
tp5251
a(I-76
I11
tp5252
a(I-75
I10
tp5253
a(I-75
I11
tp5254
a(I-74
I10
tp5255
a(I-74
I11
tp5256
a(I-73
I10
tp5257
a(I-73
I11
tp5258
a(I-72
I10
tp5259
a(I-72
I11
tp5260
a(I-71
I10
tp5261
a(I-71
I11
tp5262
a(I-70
I10
tp5263
a(I-70
I11
tp5264
a(I-69
I10
tp5265
a(I-69
I11
tp5266
a(I-68
I10
tp5267
a(I-68
I11
tp5268
a(I-67
I10
tp5269
a(I-67
I11
tp5270
a(I-66
I10
tp5271
a(I-66
I11
tp5272
a(I-65
I10
tp5273
a(I-65
I11
tp5274
a(I-64
I10
tp5275
a(I-64
I11
tp5276
a(I-63
I10
tp5277
a(I-63
I11
tp5278
a(I-62
I10
tp5279
a(I-62
I11
tp5280
a(I-61
I10
tp5281
a(I-61
I11
tp5282
a(I-60
I10
tp5283
a(I-60
I11
tp5284
a(I-59
I10
tp5285
a(I-59
I11
tp5286
a(I-58
I10
tp5287
a(I-58
I11
tp5288
a(I-57
I10
tp5289
a(I-57
I11
tp5290
a(I-56
I10
tp5291
a(I-56
I11
tp5292
a(I-55
I10
tp5293
a(I-55
I11
tp5294
a(I-54
I10
tp5295
a(I-54
I11
tp5296
a(I-53
I10
tp5297
a(I-53
I11
tp5298
a(I-52
I10
tp5299
a(I-52
I11
tp5300
a(I-51
I10
tp5301
a(I-51
I11
tp5302
a(I-50
I10
tp5303
a(I-50
I11
tp5304
a(I-49
I10
tp5305
a(I-49
I11
tp5306
a(I-48
I10
tp5307
a(I-48
I11
tp5308
a(I-47
I10
tp5309
a(I-47
I11
tp5310
a(I-46
I10
tp5311
a(I-46
I11
tp5312
a(I-45
I10
tp5313
a(I-45
I11
tp5314
a(I-44
I10
tp5315
a(I-44
I11
tp5316
a(I-45
I10
tp5317
a(I-44
I10
tp5318
a(I-45
I11
tp5319
a(I-44
I11
tp5320
a(I-45
I12
tp5321
a(I-44
I12
tp5322
a(I-45
I13
tp5323
a(I-44
I13
tp5324
a(I-45
I14
tp5325
a(I-44
I14
tp5326
a(I-45
I15
tp5327
a(I-44
I15
tp5328
a(I-45
I16
tp5329
a(I-44
I16
tp5330
a(I-45
I17
tp5331
a(I-44
I17
tp5332
a(I-45
I18
tp5333
a(I-44
I18
tp5334
a(I-45
I19
tp5335
a(I-44
I19
tp5336
a(I-45
I20
tp5337
a(I-44
I20
tp5338
a(I-45
I21
tp5339
a(I-44
I21
tp5340
a(I-59
I20
tp5341
a(I-59
I21
tp5342
a(I-58
I20
tp5343
a(I-58
I21
tp5344
a(I-57
I20
tp5345
a(I-57
I21
tp5346
a(I-56
I20
tp5347
a(I-56
I21
tp5348
a(I-55
I20
tp5349
a(I-55
I21
tp5350
a(I-54
I20
tp5351
a(I-54
I21
tp5352
a(I-53
I20
tp5353
a(I-53
I21
tp5354
a(I-52
I20
tp5355
a(I-52
I21
tp5356
a(I-51
I20
tp5357
a(I-51
I21
tp5358
a(I-50
I20
tp5359
a(I-50
I21
tp5360
a(I-49
I20
tp5361
a(I-49
I21
tp5362
a(I-48
I20
tp5363
a(I-48
I21
tp5364
a(I-47
I20
tp5365
a(I-47
I21
tp5366
a(I-46
I20
tp5367
a(I-46
I21
tp5368
a(I-45
I20
tp5369
a(I-45
I21
tp5370
a(I-44
I20
tp5371
a(I-44
I21
tp5372
a(I-65
I20
tp5373
a(I-65
I21
tp5374
a(I-64
I20
tp5375
a(I-64
I21
tp5376
a(I-63
I20
tp5377
a(I-63
I21
tp5378
a(I-62
I20
tp5379
a(I-62
I21
tp5380
a(I-61
I20
tp5381
a(I-61
I21
tp5382
a(I-60
I20
tp5383
a(I-60
I21
tp5384
a(I-65
I10
tp5385
a(I-64
I10
tp5386
a(I-65
I11
tp5387
a(I-64
I11
tp5388
a(I-65
I12
tp5389
a(I-64
I12
tp5390
a(I-65
I13
tp5391
a(I-64
I13
tp5392
a(I-65
I14
tp5393
a(I-64
I14
tp5394
a(I-65
I15
tp5395
a(I-64
I15
tp5396
a(I-65
I16
tp5397
a(I-64
I16
tp5398
a(I-65
I17
tp5399
a(I-64
I17
tp5400
a(I-65
I18
tp5401
a(I-64
I18
tp5402
a(I-65
I19
tp5403
a(I-64
I19
tp5404
a(I-65
I20
tp5405
a(I-64
I20
tp5406
a(I-65
I21
tp5407
a(I-64
I21
tp5408
a(I-65
I9
tp5409
a(I-64
I9
tp5410
a(I-65
I10
tp5411
a(I-64
I10
tp5412
a(I-65
I11
tp5413
a(I-64
I11
tp5414
a(I-65
I12
tp5415
a(I-64
I12
tp5416
a(I-64
I41
tp5417
a(I-63
I41
tp5418
a(I-64
I42
tp5419
a(I-63
I42
tp5420
a(I-64
I43
tp5421
a(I-63
I43
tp5422
a(I-64
I44
tp5423
a(I-63
I44
tp5424
a(I-64
I45
tp5425
a(I-63
I45
tp5426
a(I-64
I46
tp5427
a(I-63
I46
tp5428
a(I-64
I47
tp5429
a(I-63
I47
tp5430
a(I-64
I48
tp5431
a(I-63
I48
tp5432
a(I-77
I37
tp5433
a(I-77
I38
tp5434
a(I-76
I37
tp5435
a(I-76
I38
tp5436
a(I-75
I37
tp5437
a(I-75
I38
tp5438
a(I-74
I37
tp5439
a(I-74
I38
tp5440
a(I-73
I37
tp5441
a(I-73
I38
tp5442
a(I-72
I37
tp5443
a(I-72
I38
tp5444
a(I-71
I37
tp5445
a(I-71
I38
tp5446
a(I-70
I37
tp5447
a(I-70
I38
tp5448
a(I-69
I37
tp5449
a(I-69
I38
tp5450
a(I-68
I37
tp5451
a(I-68
I38
tp5452
a(I-67
I37
tp5453
a(I-67
I38
tp5454
a(I-66
I37
tp5455
a(I-66
I38
tp5456
a(I-65
I37
tp5457
a(I-65
I38
tp5458
a(I-64
I37
tp5459
a(I-64
I38
tp5460
a(I-63
I37
tp5461
a(I-63
I38
tp5462
a(I-62
I37
tp5463
a(I-62
I38
tp5464
a(I-61
I37
tp5465
a(I-61
I38
tp5466
a(I-60
I37
tp5467
a(I-60
I38
tp5468
a(I-59
I37
tp5469
a(I-59
I38
tp5470
a(I-58
I37
tp5471
a(I-58
I38
tp5472
a(I-57
I37
tp5473
a(I-57
I38
tp5474
a(I-56
I37
tp5475
a(I-56
I38
tp5476
a(I-55
I37
tp5477
a(I-55
I38
tp5478
a(I-54
I37
tp5479
a(I-54
I38
tp5480
a(I-53
I37
tp5481
a(I-53
I38
tp5482
a(I-52
I37
tp5483
a(I-52
I38
tp5484
a(I-51
I37
tp5485
a(I-51
I38
tp5486
a(I-50
I37
tp5487
a(I-50
I38
tp5488
a(I-49
I37
tp5489
a(I-49
I38
tp5490
a(I-48
I37
tp5491
a(I-48
I38
tp5492
a(I-47
I37
tp5493
a(I-47
I38
tp5494
a(I-46
I37
tp5495
a(I-46
I38
tp5496
a(I-45
I37
tp5497
a(I-45
I38
tp5498
a(I-44
I37
tp5499
a(I-44
I38
tp5500
a(I-45
I23
tp5501
a(I-44
I23
tp5502
a(I-45
I24
tp5503
a(I-44
I24
tp5504
a(I-45
I25
tp5505
a(I-44
I25
tp5506
a(I-45
I26
tp5507
a(I-44
I26
tp5508
a(I-45
I27
tp5509
a(I-44
I27
tp5510
a(I-45
I28
tp5511
a(I-44
I28
tp5512
a(I-45
I29
tp5513
a(I-44
I29
tp5514
a(I-45
I30
tp5515
a(I-44
I30
tp5516
a(I-45
I31
tp5517
a(I-44
I31
tp5518
a(I-45
I32
tp5519
a(I-44
I32
tp5520
a(I-45
I33
tp5521
a(I-44
I33
tp5522
a(I-45
I34
tp5523
a(I-44
I34
tp5524
a(I-45
I35
tp5525
a(I-44
I35
tp5526
a(I-45
I36
tp5527
a(I-44
I36
tp5528
a(I-45
I37
tp5529
a(I-44
I37
tp5530
a(I-45
I38
tp5531
a(I-44
I38
tp5532
a(I-55
I24
tp5533
a(I-55
I25
tp5534
a(I-54
I24
tp5535
a(I-54
I25
tp5536
a(I-53
I24
tp5537
a(I-53
I25
tp5538
a(I-52
I24
tp5539
a(I-52
I25
tp5540
a(I-51
I24
tp5541
a(I-51
I25
tp5542
a(I-50
I24
tp5543
a(I-50
I25
tp5544
a(I-49
I24
tp5545
a(I-49
I25
tp5546
a(I-48
I24
tp5547
a(I-48
I25
tp5548
a(I-47
I24
tp5549
a(I-47
I25
tp5550
a(I-46
I24
tp5551
a(I-46
I25
tp5552
a(I-45
I24
tp5553
a(I-45
I25
tp5554
a(I-44
I24
tp5555
a(I-44
I25
tp5556
a.